(lp1
(lp2
Vconf svg
p3
aVsvg
p4
aVcups cupsd
p5
aVimprimante
p6
aVetc cups
p7
aVcupsd
p8
aVcups
p9
aVetc
p10
aVcupsd conf
p11
aVconf
p12
aa(lp13
Vpietons
p14
aVchaussee code
p15
aVchaussee
p16
aVdune chaussee
p17
aVtenu
p18
aVceder passage
p19
aVceder
p20
aVtout
p21
aVpassage pietons
p22
aVtout conducteur
p23
aa(lp24
Vfunction
p25
aVbloc
p26
aVelse
p27
aVthen
p28
aVfalse
p29
aVtype
p30
aVtrue
p31
aVlua
p32
aVend
p33
aVprint
p34
aa(lp35
Vmaster
p36
aVip
p37
aVmaps
p38
aVfor
p39
aVmap
p40
aVkids
p41
aVtrafic
p42
aVjeux
p43
aVbebe
p44
aVgps
p45
aa(lp46
Vimages
p47
ag30
aVimage
p48
aVmessage
p49
aVvera
p50
aVcontent
p51
ag33
aVjpg
p52
aVcourriel
p53
aVlocal
p54
aa(lp55
Vcom cours
p56
aVpermettre
p57
aVpermettre developpements
p58
aVrigoureux logique
p59
aVrigoureux
p60
aVlogiques raisonnement
p61
aVcours logiques
p62
aVriche permettre
p63
aVcours
p64
aVlogique
p65
aa(lp66
Vtexmf tex
p67
aVucs
p68
aVlatex unicode
p69
aVtexhash
p70
aVtex latex
p71
aVtex
p72
aVfichier
p73
aVunicode
p74
aVtexmf
p75
aVlatex
p76
aa(lp77
Vcharges montant
p78
aVloyer ete
p79
aVperiode
p80
aVlocataire
p81
aVcharges
p82
aVpaye
p83
aVmontant
p84
aVquittance loyer
p85
aVquittance
p86
aVloyer
p87
aa(lp88
Vletat lieux
p89
aVfaire
p90
aVpeut
p91
aVproprietaire
p92
aVlogement
p93
aVletat
p94
aVetat lieux
p95
ag81
aVetat
p96
aVlieux
p97
aa(lp98
Vdo
p99
aVgksudo gnome
p100
aVsudo gksudo
p101
aVgksudo
p102
aVsudo do
p103
aVkdesudo
p104
aVsudo commande
p105
aVgnome
p106
aVkdesudo kde
p107
aVsudo
p108
aa(lp109
Vbien
p110
aVmeme
p111
aVnuit
p112
aVboitier
p113
aVlink
p114
aVlink dcs
p115
aVplus
p116
aVdcs 2230
p117
aV2230
p118
aVdcs
p119
aa(lp120
Vdepuis
p121
ag50
aVurn
p122
aVdevice
p123
aVserviceid
p124
aVrequete
p125
aVdata_request id
p126
aVdata_request
p127
aVid
p128
aVhttp
p129
aa(lp130
Vthunderbird profile
p131
aVcommande
p132
aVmail
p133
aVhome thunderbird_mail
p134
aVhome thunderbird
p135
aVthunderbird thunderbird
p136
aVthunderbird_mail
p137
aVprofile
p138
aVhome
p139
aVthunderbird
p140
aa(lp141
Vdf connaitre
p142
aVdf
p143
aVdisques df
p144
aVtaille
p145
aVtaille tous
p146
aVloccupation espaces
p147
aVloccupation
p148
aVcompris
p149
aVconnaitre taille
p150
aVconnaitre
p151
aa(lp152
Vpropre piege
p153
aVprendre propre
p154
aVpropre
p155
aVsource slate
p156
aVweb
p157
aVdenseignement
p158
aVfr
p159
aVdenseignement lycee
p160
aVpremiere
p161
aVannee denseignement
p162
aa(lp163
Vpeut etre
p164
aVetre
p165
aVloyers ressources
p166
aVrevision
p167
aVplafonds loyers
p168
aV2014
p169
aVplafonds
p170
aVloyers
p171
ag87
aVbail
p172
aa(lp173
Vouvrir
p174
ag73
aVfr freeboxtv
p175
aVfreeboxtv
p176
aVm3u
p177
aVmafreebox freebox
p178
aVfreebox fr
p179
aVfreebox
p180
aVmafreebox
p181
ag159
aa(lp182
Vdescriptor
p183
aVuimai tutoriel
p184
aVfile
p185
aVengine descriptor
p186
aVanalysis
p187
aVfaut
p188
aVuimai
p189
aVtutoriel uimai
p190
aVuima
p191
aVtutoriel
p192
aa(lp193
Vauthor vcard
p194
aVvcard
p195
aVreply comment
p196
aVreply
p197
aVcommentmetadata
p198
aVscie
p199
aVmeta commentmetadata
p200
aVauthor
p201
aVcomment author
p202
aVcomment
p203
aa(lp204
V04 the
p205
aVdirectory
p206
aVdirectory ubuntu
p207
aVete
p208
aVete confronte
p209
aVlynx ubuntu
p210
aVlynx
p211
aVjai
p212
aVthe lucid
p213
aVubuntu
p214
aa(lp215
Vrevenu
p216
aVfinancieres
p217
aVdeclaration
p218
aVregime
p219
aVdeficit
p220
aVfoncier
p221
aVrevenus fonciers
p222
aVfonciers
p223
ag82
aVrevenus
p224
aa(lp225
Vmail ligne
p226
aVconfigurer
p227
aVopt
p228
aVsmtp smtp
p229
aVligne commande
p230
ag132
aVinstaller
p231
aVsmtp
p232
ag133
aVnail
p233
aa(lp234
g151
aVliste dependances
p235
aVdun
p236
aVsuffit
p237
aVdun executable
p238
aVtaper ldd
p239
aVexecutable suffit
p240
aVliste
p241
aVexecutable
p242
aVdependances
p243
aa(lp244
Vuima document
p245
aVarguments xms256m
p246
aVanalyzer
p247
ag191
aVrun
p248
aVdocument analyzer
p249
aVloutil document
p250
aVloutil
p251
aVdocument
p252
aVjava
p253
aa(lp254
Valt f7
p255
aVlogin
p256
aVctrl alt
p257
aVctrl
p258
aVf6
p259
aVf6 login
p260
aVf7
p261
aVlogin alt
p262
aValt f1
p263
aValt
p264
aa(lp265
V1amp
p266
aVatelier
p267
aVlangage
p268
aVamazon
p269
aVlangage sql
p270
aVsql
p271
aVlivre
p272
aVbases
p273
aVbases donnees
p274
aVdonnees
p275
aa(lp276
Vautre automobiliste
p277
aVni moralite
p278
ag116
aVmoquer
p279
aVcest moquer
p280
aVni
p281
aVville
p282
aVcest
p283
aV44
p284
ag236
aa(lp285
V04 gnome
p286
aVclassic recuperer
p287
aVnotifications gnome
p288
aVclassic
p289
aVgnome classic
p290
aVapplet
p291
aVlicone
p292
aVlicone volume
p293
aVvolume
p294
ag106
aa(lp295
Vtres
p296
aVwindows
p297
aVdemarrerprogrammes
p298
aVmettre lordre
p299
aVnecessaire mettre
p300
aVnecessaire
p301
aVmettre
p302
aVprogrammes windowsmenu
p303
aVlordre page
p304
aVprogrammes
p305
aa(lp306
Vem cite
p307
aVabbr title
p308
aVterminal
p309
aVentry
p310
aVpubliee
p311
aVadresse
p312
aVcommentaire
p313
aVcite
p314
aVtitle
p315
aVtomtom
p316
aa(lp317
Vtabular
p318
aVtabcolsep
p319
aVtextbf textbf
p320
aVpetit
p321
ag33
aVhline
p322
aVcentering
p323
aVusepackage usepackage
p324
aVusepackage
p325
aVtextbf
p326
aa(lp327
Vmobiles
p328
aVreseaux mobiles
p329
aVmobiles edge
p330
aVhspa
p331
aVmobile
p332
aVreseaux
p333
aVedge 3g
p334
aVedge
p335
aV4g
p336
aV3g
p337
aa(lp338
Vini
p339
aV9000
p340
aVhttp 192
p341
aV192
p342
aVrepertoire
p343
aVrebuild
p344
aVrpc
p345
aVrpc rebuild
p346
aVtwonkyvision
p347
aVtwonkymedia
p348
aa(lp349
Vmemoires
p350
aVheures hebdomadaires
p351
ag64
aV50
p352
aVdufr
p353
aVrapports reunions
p354
aVrapports
p355
aVheures
p356
aVconseils
p357
aVreunions
p358
aa(lp359
Vkatepart
p360
aVapps katepart
p361
aVkatepart syntax
p362
aVkile
p363
aVsyntax latex
p364
aVapps
p365
aVsyntax
p366
aVlatex xml
p367
aVxml
p368
ag76
aa(lp369
Vpartition
p370
aVcache partition
p371
aVfaire wipe
p372
aVwipe cache
p373
aVdalvik cache
p374
aVtelephone
p375
ag116
ag90
aVcache
p376
aVwipe
p377
aa(lp378
Vdroit
p379
ag116
aVpersonnes meme
p380
aVmeme sexe
p381
aVmariage
p382
aVdeux personnes
p383
aVdeux
p384
aVsexe
p385
aVpersonnes
p386
ag111
aa(lp387
Vrc s20pgsql
p388
aVrestaurer
p389
aVsyno
p390
aVadmin
p391
aVbase
p392
ag275
aVphoto station
p393
aVstation
p394
aVphoto
p395
aVcommentaires
p396
aa(lp397
Venfin nouvelle
p398
aVenfin lalimentation
p399
aVenfin longlet
p400
aVenfin lors
p401
aVenfin lun
p402
aVenfin metro
p403
aVenfin limportance
p404
aVwinff ffmpeg
p405
aVwinff
p406
aVffmpeg
p407
aa(lp408
Vprise commutateur
p409
aVsynology
p410
aVboitier freebox
p411
ag113
ag116
aVprise
p412
aVsynozwave
p413
aVfreebox serveur
p414
aVserveur
p415
ag180
aa(lp416
Vupnp
p417
aVservice
p418
aVservice file
p419
aVfile luup
p420
aVluup plugins
p421
aVplugins
p422
ag123
aVplugin
p423
ag185
aVluup
p424
aa(lp425
Vcentrale
p426
aVcapteurs
p427
aVdomotique
p428
aValarme
p429
aVcapteur tag
p430
aVsysteme
p431
aVlalarme
p432
aVcapteur
p433
aVtag
p434
aVmyfox
p435
aa(lp436
Vtxt wordpress
p437
aVwp security
p438
aVwp
p439
aVblog wordpress
p440
aVsecurity
p441
aVblog
p442
aVrobots
p443
aVrobots txt
p444
aVtxt
p445
aVwordpress
p446
aa(lp447
Vlibre
p448
aVdispositif scellier
p449
aVloyer plus
p450
aVlocation
p451
aVpermet
p452
ag87
ag116
aVscellier intermediaire
p453
aVintermediaire
p454
aVscellier
p455
aa(lp456
Vcom serviceid
p457
aVurn micasaverde
p458
aVmicasaverde
p459
aVcom
p460
aVlonglet
p461
ag124
ag122
aVsensor
p462
aVmotion
p463
aVmultisensor
p464
aa(lp465
Vpreferences always_use_browser
p466
aVpreferences
p467
aVtmp
p468
ag365
aVtmp var
p469
aVvar
p470
aVnautilus preferences
p471
aValways_use_browser
p472
ag106
aVnautilus
p473
aa(lp474
g73
aVid3 fichiers
p475
aVcomme
p476
aVmetadonnees
p477
aVdonne
p478
aVtags id3
p479
aVfichiers musicaux
p480
aVfichiers
p481
aVid3
p482
aVprojet
p483
aa(lp484
g236
aVcontrat location
p485
aVdune
p486
ag172
ag93
ag92
aVcontrat
p487
ag451
ag81
aVclause
p488
aa(lp489
Vplug
p490
aVgoogle agenda
p491
aVparametre
p492
aVagenda fois
p493
aVclient funambol
p494
aVclient
p495
ag188
aVfunambol
p496
aVagenda
p497
aVscheduleworld
p498
aa(lp499
Vactiver
p500
aVnom domaine
p501
aVdomaine
p502
aVutilisateur
p503
aVftp
p504
aVconfiguration
p505
ag157
ag410
ag446
aVnom
p506
aa(lp507
Vsecret
p508
aVclient id
p509
aVhttps
p510
aVclient secret
p511
aVstring
p512
aVapi
p513
ag128
ag495
ag435
ag54
aa(lp514
Vdepend lapplication
p515
aVouestleprogram
p516
aVlancer lapplication
p517
aVdont
p518
aVlancer
p519
aVdepend
p520
aVlibrairies
p521
ag343
aVscript
p522
aVlapplication
p523
aa(lp524
Vmodule
p525
aV001
p526
aVfumee
p527
aVfgss
p528
aVfibaro smoke
p529
aVfibaro
p530
aVfirmware
p531
aVsmoke sensor
p532
ag462
aVsmoke
p533
aa(lp534
Vcamera
p535
aVflux
p536
aVsecondes decalage
p537
aVfluide secondes
p538
aVimage fluide
p539
aVdecalage
p540
aVsecondes
p541
aVfonctionne
p542
aVfluide
p543
ag48
aa(lp544
g476
ag30
ag185
ag186
ag192
aVtraitement
p545
aVaggregate
p546
aVengine
p547
ag183
ag191
aa(lp548
Vlite
p549
aVecho
p550
aVluaupnp
p551
ag73
ag424
aVcode
p552
ag32
ag50
aVssh
p553
aVlog
p554
aa(lp555
Vbasculer
p556
aVallumer
p557
aVlordinateur portable
p558
aVprojecteur
p559
aVvideo projecteur
p560
aVdemarrer
p561
aVdemarrer systeme
p562
ag431
aVvideo
p563
aVportable
p564
aa(lp565
V184006
p566
aVfat32
p567
ag431
ag73
aVsysteme fichier
p568
aVntfs
p569
aVformater
p570
aVmicrosoft
p571
aV32go
p572
ag297
aa(lp573
Vlapplication doit
p574
ag57
aVcombat
p575
aVmarins
p576
aVsous marins
p577
ag523
aVsous
p578
ag483
ag384
aVdoit
p579
aa(lp580
Vbox
p581
aVlintelligence
p582
aVmodules
p583
aVvera lite
p584
ag549
ag116
aVwave
p585
ag50
aVchoix
p586
ag428
aa(lp587
Vdesign patterns
p588
aVdesign
p589
aVaudibert
p590
aVhref http
p591
aVdiagrammes
p592
aVpratique
p593
aVuml
p594
ag269
ag272
aVdiagramme
p595
aa(lp596
Vclass
p597
aVsavon
p598
aVsavon marseille
p599
aVglycerine
p600
aVchat
p601
aVclass cuir
p602
aVchiffon
p603
aVcuir
p604
aVmarseille
p605
aVmeguiars
p606
aa(lp607
Vname
p608
ag187
ag248
ag247
ag249
ag252
ag183
ag30
ag185
ag191
aa(lp609
Vci
p610
aVelements
p611
ag252
ag586
aVbegin
p612
aVbegin end
p613
ag33
aVdannotations
p614
ag191
aVannotations
p615
aa(lp616
Vprix
p617
aVneige
p618
aVpneu
p619
aVroute
p620
aVpneus ete
p621
aVjantes
p622
ag208
aVpneus hiver
p623
aVhiver
p624
aVpneus
p625
aa(lp626
Vdassurance
p627
aVdemprunt
p628
aVcas
p629
aVfrais
p630
ag216
aVn2044
p631
ag218
aVpret
p632
aVlannee
p633
aVinterets
p634
aa(lp635
Vdont specifications
p636
aVprobleme
p637
ag410
aVcompatible
p638
aVcheck_fan
p639
aVniveau
p640
aVmodele
p641
aVnest
p642
ag116
aVventilateur
p643
aa(lp644
Vetc sudoers
p645
aVall all
p646
aVsu
p647
aVsudoers
p648
aVdefaults
p649
aVdefaults requiretty
p650
aVuser su
p651
aVall
p652
aVsudogr
p653
aVuser
p654
aa(lp655
Vmode
p656
aVimprimer windows
p657
aVimprimer
p658
aVwindows virtualbox
p659
aVreseau mode
p660
aVacces pont
p661
ag297
aVmode dacces
p662
aVdacces reseau
p663
aVreseau
p664
aa(lp665
g91
aVreleves
p666
aVtime
p667
aVchronologiques
p668
aVinfluxdb
p669
aVutiliser
p670
aVgraphite
p671
aVsgbd
p672
aVseries
p673
ag275
aa(lp674
Vdetecteur
p675
ag549
ag50
ag584
ag526
ag528
aVfgss 001
p676
ag532
ag462
ag533
aa(lp677
Vincidents
p678
aVdonc
p679
aVmesure
p680
aVprobabilite davoir
p681
aVligne
p682
aVincident
p683
aVdavoir
p684
aVprobabilite
p685
aVtrajet
p686
aVponctualite
p687
aa(lp688
Vvariables
p689
aVvariables add
p690
aVadvanced
p691
aVdevicesettings advanced
p692
ag365
aVdevicesettings
p693
aVnew
p694
aVnew service
p695
ag418
ag123
aa(lp696
Vggid
p697
aVluid
p698
aVgid dun
p699
aVajouter
p700
aVutilisateur changer
p701
aVgid
p702
aVchanger
p703
aVdun utilisateur
p704
ag236
ag503
aa(lp705
Vnobody blog
p706
aVnobody nobody
p707
aVrestaure proprietaire
p708
ag442
aVrestaure
p709
aVdune tentative
p710
aVmise jour
p711
aVnobody
p712
aVjour
p713
aVmise
p714
aa(lp715
Vsygic
p716
aVrupi
p717
aVwaze
p718
aVov2
p719
aVbmp
p720
aVnavigation
p721
ag316
aVpoi
p722
aVandroid
p723
aVmespoi
p724
aa(lp725
Vmagicien
p726
aVpermettant mettre
p727
aVannee dut
p728
aVjeu
p729
aVcombattants
p730
ag253
ag594
aVproposer
p731
aVapplication
p732
ag483
aa(lp733
Vversion
p734
aVpoint montage
p735
aVafficher version
p736
aVafficher messages
p737
aVmessages noyau
p738
aVnoyau
p739
aVmessages
p740
aVsbin
p741
aVafficher
p742
ag525
aa(lp743
g384
aVdocument lon
p744
aVbook report
p745
aVrenewcommand begin
p746
aVbook
p747
aVrenewcommand bibname
p748
aVbegin document
p749
aVsuivant classe
p750
aVrenewcommand
p751
ag252
aa(lp752
Vredefinir priorite
p753
aVfiltrer
p754
aVredefinir
p755
aVcolonne tri
p756
aVtuer processus
p757
aVcommande taper
p758
aVprocessus
p759
aVprocessus taper
p760
ag132
aVtaper
p761
aa(lp762
Vsolidaire
p763
aVmeme logement
p764
ag111
aVgerer
p765
aVgerer meme
p766
aVlogement locatif
p767
ag81
aVlocatif
p768
ag93
aVcaution
p769
aa(lp770
Vxx
p771
aVwindows dual
p772
aVboot windows
p773
aVxx bootsect
p774
aVwindows dos
p775
aVbootpart
p776
aVboot
p777
aVgrub
p778
ag297
aVlinux
p779
aa(lp780
g208
aVfaut rendre
p781
aVcaracteres
p782
aVseule
p783
aVrendre
p784
aVlignes
p785
ag363
ag656
aVlecture seule
p786
aVlimite
p787
aa(lp788
g263
ag258
ag257
ag106
aVquil peut
p789
aVparticulier peut
p790
ag91
aVconnecter
p791
aVpeut connecter
p792
aVquil
p793
aa(lp794
Vcommande systeme
p795
aVfonction
p796
ag25
aVping
p797
aVreturn
p798
ag431
ag33
ag452
ag132
ag54
aa(lp799
Vfiches papier
p800
ag731
aVproposer modele
p801
ag641
ag431
aVdune bibliotheque
p802
aVinformatique
p803
ag486
ag483
aVbibliotheque
p804
aa(lp805
Vselection
p806
aVmanagement
p807
aVmanagement architecture
p808
aVunstructured information
p809
aVunstructured
p810
aVinformation management
p811
aVof
p812
aVarchitecture
p813
aVinformation
p814
ag191
aa(lp815
Vavouer
p816
ag586
ag483
aVjoueurs
p817
aVlautre
p818
aVans prison
p819
aVans
p820
aVprison
p821
aVsi
p822
ag384
aa(lp823
Vusbshare archive
p824
aVusbshare
p825
aVvolume1 backup
p826
ag343
aVvolumeusb1
p827
aVsauvegarde
p828
aVvolumeusb1 usbshare
p829
aVarchive
p830
aVvolume1
p831
aVbackup
p832
aa(lp833
Vcentraux
p834
aVprise telephone
p835
ag375
aVprise rj45
p836
aVvers
p837
aVtelephone prise
p838
aVprise rj11
p839
aVrj11
p840
aVrj45
p841
ag412
aa(lp842
Vps
p843
aVshared
p844
aVtop
p845
ag228
aVbin
p846
aVpkg
p847
ag185
aVinstall
p848
aVipkg install
p849
aVipkg
p850
aa(lp851
g37
aVparametres
p852
ag700
aVsuivant suivant
p853
ag415
aVdimpression
p854
ag6
ag506
aVport
p855
aVsuivant
p856
aa(lp857
Vnouveau disque
p858
aVnouveau
p859
aVpreparer
p860
aVsdl
p861
aVsynology assistant
p862
aVassistant
p863
aVdur
p864
aVdisque dur
p865
ag410
aVdisque
p866
aa(lp867
Vviolet
p868
aVappuyer
p869
aVtest
p870
ag530
aVbouton
p871
ag462
aVled
p872
ag526
aVfgms
p873
aVfgms 001
p874
aa(lp875
g274
ag236
ag273
ag116
aVeditee
p876
aVtravaux
p877
ag272
ag271
ag682
ag734
aa(lp878
Vscript dinstallation
p879
aVtagging
p880
aVmorpho
p881
aVsyntaxique
p882
aVtree
p883
ag522
aVtree tagger
p884
aVtagger
p885
aVtelecharger
p886
aVtreetagger
p887
aa(lp888
Vversion editee
p889
aVnombre
p890
ag64
ag877
ag876
ag116
aVversion ligne
p891
ag682
ag272
ag734
aa(lp892
Vconception
p893
aV24 11
p894
aV24
p895
ag268
ag271
ag270
ag274
ag64
ag273
ag275
aa(lp896
V1000
p897
aVfrance
p898
aVresponsables
p899
aVgazole
p900
ag820
aVgouvernement
p901
aVdeces
p902
aVparticules
p903
aVvehicules
p904
aVdiesel
p905
aa(lp906
Vprotocole
p907
ag791
aVnas
p908
aVsynozwave synozwave
p909
ag428
aVnas synology
p910
aVpaquets
p911
ag410
ag585
ag413
aa(lp912
Vdeclaration revenus
p913
ag451
ag629
ag81
aVformulaire
p914
aVn2042
p915
aVcopie
p916
ag631
ag224
ag218
aa(lp917
Vget
p918
aVraspbian
p919
aVberryboot
p920
ag553
aVnfs
p921
aVpi sudo
p922
aVraspberry pi
p923
ag108
aVraspberry
p924
aVpi
p925
aa(lp926
Vcas detection
p927
aVmouvement
p928
aVdetection mouvement
p929
ag629
ag428
ag37
aVcamera ip
p930
aVdetection
p931
ag581
ag535
aa(lp932
Vip link
p933
ag118
ag117
ag115
ag119
ag114
ag930
ag37
ag535
ag505
aa(lp934
Vrule
p935
aVbased
p936
aVwe
p937
aVontology
p938
aVwith
p939
aVtask
p940
ag812
aVmeasure
p941
aVto
p942
aVthe
p943
aa(lp944
Vscreen screen
p945
aVscreen lancer
p946
aVpuis ctrl
p947
aVlancer screen
p948
aVnom_du_screen
p949
aVscreen nom_du_screen
p950
aVctrl puis
p951
aVpuis
p952
ag258
aVscreen
p953
aa(lp954
Vhttp localhost
p955
aVlocalhost 8080
p956
ag129
ag796
aVgestionnaire
p957
ag32
aV8080
p958
aVhtml
p959
aVxavante
p960
aVwsapi
p961
aa(lp962
Vpoibeau
p963
aVentites nommees
p964
aVenamex
p965
aVnommees
p966
aVptprince txt
p967
aVentites
p968
aVmucfr
p969
aVptprince
p970
ag445
aVtagen
p971
aa(lp972
Vdirectement
p973
aVliste lecture
p974
aVlecture
p975
aVgerer decouverte
p976
aVservices decouverte
p977
aVvlc
p978
aVdecouverte
p979
aVupnp av
p980
ag417
aVav
p981
aa(lp982
Vupnp org
p983
aVurn upnp
p984
aVserviceid switchpower1
p985
aVlocal urn
p986
aVswitchpower1
p987
ag122
aVwall
p988
aVwall plug
p989
ag124
ag490
aa(lp990
Vreconfigure xserver
p991
aVreconfigure
p992
ag578
aVsudo dpkg
p993
ag12
aVconf entree
p994
ag108
ag10
aVxserver xorg
p995
aVxorg
p996
aa(lp997
Ventretien
p998
ag82
aVparties
p999
ag81
aVdepenses
p1000
aVcommunes
p1001
ag768
aVparties communes
p1002
ag767
ag93
aa(lp1003
Vfreeplayer org
p1004
aVfreeplayer
p1005
ag129
aVbugs freeplayer
p1006
ag940
aVorg
p1007
aVbugs
p1008
aVorg task
p1009
aVhttp bugs
p1010
aVfree
p1011
aa(lp1012
Vnicolas
p1013
aVnicolas sarkozy
p1014
aVpolitiques
p1015
aVmarine
p1016
aVmarine pen
p1017
aV27
p1018
aVsarkozy
p1019
aVhollande
p1020
aVfrancois
p1021
aVderreur
p1022
aa(lp1023
Vmecanique
p1024
ag311
ag312
aVaeronefs classiques
p1025
ag21
ag314
aVaeronefs
p1026
ag315
aVfluides
p1027
aVaerodynamique
p1028
aa(lp1029
Vaffichage
p1030
aVsdcard ringtones
p1031
aVsdcard sdcard
p1032
ag703
aVgoogle
p1033
aVgoogle billet
p1034
aVlecran
p1035
ag852
aVringtones
p1036
aVsdcard
p1037
aa(lp1038
Vmultiprise greenwave
p1039
aVprises
p1040
ag50
aVgeneral
p1041
ag585
ag412
aVoff
p1042
ag871
aVmultiprise
p1043
aVgreenwave
p1044
aa(lp1045
Vlatex beamer
p1046
aVgreek latex
p1047
aVjabref pybliographer
p1048
aVjabref
p1049
aVfonts
p1050
aVfonts recommended
p1051
aVpybliographer hevea
p1052
aVtexlive fonts
p1053
ag76
aVtexlive
p1054
aa(lp1055
g115
ag119
aVdi
p1056
ag931
ag99
aVsortie
p1057
ag535
aVsurveillance
p1058
ag394
aVsurveillance station
p1059
aa(lp1060
Vxorg conf
p1061
ag992
aVreconfigure phigh
p1062
ag12
ag993
aVconf ubuntu
p1063
ag822
aVdpkg reconfigure
p1064
ag995
ag996
aa(lp1065
g73
aVcmh
p1066
ag129
ag549
ag584
aVip_vera
p1067
aVroot
p1068
ag554
ag50
ag553
aa(lp1069
Vdut informatique
p1070
ag64
aVlife
p1071
aVgame
p1072
ag812
aVconways
p1073
aVconways game
p1074
aVgame of
p1075
aVof life
p1076
ag483
aa(lp1077
Venvoye
p1078
aVlobjet
p1079
ag33
aVfacultatif
p1080
ag30
ag49
ag53
ag232
ag50
ag54
aa(lp1081
Vnom_court connaitre
p1082
aVrpm installes
p1083
aVivh nom_complet
p1084
aVql nom_court
p1085
aVinstalles
p1086
aVinstalles rpm
p1087
aVnom_complet
p1088
aVrpm rpm
p1089
aVnom_court
p1090
aVrpm
p1091
aa(lp1092
g506
aVmedia
p1093
aVmke2fs
p1094
aVdonner
p1095
aVdisque dev
p1096
aVsda1
p1097
aVdev sda1
p1098
aVmon_disque
p1099
aVdev
p1100
ag866
aa(lp1101
Vdepaisseur
p1102
aVpeuvent
p1103
aVva
p1104
aVfonte glaces
p1105
aVterme
p1106
aVfonte
p1107
aVpeuvent atteindre
p1108
aVmetres
p1109
aVatteindre
p1110
aVglaces
p1111
aa(lp1112
Vmaintenant
p1113
aVapache organization
p1114
aVapache uima
p1115
ag431
aVstructured
p1116
aVincubation fondation
p1117
aVapache
p1118
aVcomposants
p1119
ag814
ag191
aa(lp1120
Vtelephoniques filtrage
p1121
aVentrants
p1122
ag700
ag682
aVappels
p1123
ag418
aVtelephoniques
p1124
aV351
p1125
ag241
aVnumero
p1126
aa(lp1127
Vinstallation
p1128
aVnext
p1129
ag848
ag1115
ag253
ag1118
aVsdk
p1130
aVemf
p1131
aVeclipse
p1132
ag191
aa(lp1133
Vmenu
p1134
aVmenu demarrage
p1135
ag771
aVdemarrage
p1136
aVwindows windows
p1137
ag370
ag776
ag777
ag779
ag297
aa(lp1138
g30
aVdenture
p1139
aVcarreaux
p1140
aVdouble
p1141
aVdouble encollage
p1142
aVencollage
p1143
aVcm
p1144
aVpeigne colle
p1145
aVcolle
p1146
aVpeigne
p1147
aa(lp1148
Vgraphiques
p1149
ag579
ag236
ag165
aVtemps
p1150
aVconsommation
p1151
aVbase donnees
p1152
ag392
ag428
ag275
aa(lp1153
g504
ag1011
ag837
aVfree dlink
p1154
aVfreebox freeboxhd
p1155
aV635 freebox
p1156
aV635
p1157
aVdlink dir
p1158
aVvers freeboxhd
p1159
aVfreeboxhd
p1160
aa(lp1161
Vpython louie
p1162
aVsynaptic python
p1163
aVcoherence
p1164
aVgibbon
p1165
aVgutsy
p1166
aVubuntu gutsy
p1167
aVgutsy gibbon
p1168
aVpython
p1169
aVrhythmbox
p1170
ag214
aa(lp1171
Vnode at
p1172
aVat
p1173
aVevery
p1174
aVsettings
p1175
aVseconds
p1176
aVnode
p1177
ag50
aVpoll
p1178
ag585
aVpolling
p1179
aa(lp1180
g384
aVpair
p1181
ag165
ag504
aVblindage
p1182
aVtwisted pair
p1183
aVcablage
p1184
aVcat6
p1185
ag841
aVcable
p1186
aa(lp1187
Vchangement
p1188
aVrepertoire type
p1189
aVfind repertoire
p1190
aVxargs 0ix
p1191
aVxargs
p1192
aVprint0
p1193
ag343
aVrepertoires
p1194
ag481
aVchmod
p1195
aa(lp1196
Vannotator
p1197
ag314
ag315
aVcomposant dannotation
p1198
aVdannotation
p1199
aVanalysis engine
p1200
ag547
ag191
ag187
aVcomposant
p1201
aa(lp1202
Vipx800
p1203
aVsht
p1204
aVentre
p1205
aVsht x3
p1206
aVan
p1207
aVtransfert
p1208
aV3v
p1209
aVtension
p1210
aVtemperature
p1211
ag433
aa(lp1212
Vvouliez utiliser
p1213
aVsimplement serveur
p1214
aVserver
p1215
ag670
aVautre
p1216
ag854
aVdimpression home
p1217
aVlan dhcp
p1218
aVserver disabled
p1219
aVutiliser di
p1220
aa(lp1221
g50
aVsecondaire
p1222
ag872
aVmodule wave
p1223
aVappui
p1224
aVcourt bouton
p1225
aVlabs
p1226
aVcontroleur
p1227
ag585
aVstick
p1228
aa(lp1229
Vprocedure mise
p1230
aVwatchdog ping
p1231
aVprocedure
p1232
ag713
ag711
aVwatchdog
p1233
aVping watchdog
p1234
ag714
ag797
ag1203
aa(lp1235
Vposseder firmware
p1236
ag531
aVappliquez patch
p1237
aVappliquez
p1238
ag415
aVweb systeme
p1239
aVdecompressez
p1240
aVposseder
p1241
ag640
aVpatch
p1242
aa(lp1243
Vassert
p1244
ag535
aVcapturer
p1245
ag125
ag54
ag930
ag549
ag584
ag48
ag50
aa(lp1246
Vplus detection
p1247
aVsysteme detection
p1248
aVdetections
p1249
aVvaleur
p1250
ag929
aVsensible
p1251
ag928
ag535
ag116
ag931
aa(lp1252
g315
ag113
ag314
ag414
ag1234
ag1233
ag415
ag180
ag116
ag797
aa(lp1253
g924
aVaeon
p1254
ag1226
ag925
aVsetup
p1255
aVaeon labs
p1256
ag549
ag584
ag50
aVdomoticz
p1257
aa(lp1258
Vlan
p1259
aVmicrologiciel
p1260
aVhex
p1261
ag714
aVlan settings
p1262
aVlipx800
p1263
ag713
ag1175
ag1203
aVtftp
p1264
aa(lp1265
Vmsconfig
p1266
ag283
ag1136
aVsimple menu
p1267
ag1134
aVmsconfig demarrage
p1268
aVmenu demarrer
p1269
aVsimple
p1270
aVexecuter
p1271
aVdemarrer executer
p1272
aa(lp1273
Vcenter2
p1274
aVhome center2
p1275
ag586
ag1227
ag549
ag907
ag428
ag139
ag585
ag50
aa(lp1276
g384
aVjapprecie
p1277
aVjapprecie enormement
p1278
aVraisons firefox
p1279
aVraisons
p1280
aVenormement
p1281
aVenormement navigateur
p1282
aVjutilise
p1283
aVmenerve
p1284
aVfirefox
p1285
aa(lp1286
g236
aVfichiers texte
p1287
aVcours bases
p1288
ag275
ag273
ag481
ag274
aVtexte
p1289
ag483
aVrecherche
p1290
aa(lp1291
Vlogement precedent
p1292
ag766
ag111
ag765
ag764
ag87
ag767
aVphotocopie
p1293
ag768
ag93
aa(lp1294
Vopenremote openremote
p1295
aVlinterface
p1296
ag585
ag91
aVenocean
p1297
ag909
ag428
ag908
aVopenremote
p1298
ag413
aa(lp1299
Vsommaire
p1300
ag813
ag814
ag811
aVuima blog
p1301
aVautonome
p1302
aVautonome concernant
p1303
aVmaintiens page
p1304
aVsommaire uima
p1305
ag191
aa(lp1306
V192 168
p1307
aVauto
p1308
aVuser auto
p1309
ag654
aVcifs
p1310
aVnoperm
p1311
aVcreer
p1312
aVdata
p1313
ag73
ag410
aa(lp1314
g1040
ag110
ag1175
aVreset
p1315
aVwave fibaro
p1316
aVui7
p1317
ag50
ag675
ag530
ag585
aa(lp1318
Vfind
p1319
aVremarque
p1320
aVchaine motif
p1321
aVfind mon_rep
p1322
aVremarque updatedb
p1323
aVlocate nom_fichier
p1324
aVmon_rep name
p1325
aVlocate
p1326
aVmotif
p1327
aVmon_rep
p1328
aa(lp1329
Vcodepage 850
p1330
aVrw user
p1331
ag1311
aVnoperm iocharset
p1332
aVdir_mode
p1333
aV0777
p1334
ag1093
aVmedia synology
p1335
ag410
aVxxx
p1336
aa(lp1337
Vlcd panel
p1338
aVlcd
p1339
aVecran large
p1340
aV1680
p1341
aVpanel
p1342
aVpanel 1680
p1343
aV1680 1050
p1344
aV1050
p1345
aVecran
p1346
aVlarge
p1347
aa(lp1348
Vcreer compte
p1349
aVpasswd
p1350
aVcompte
p1351
ag1312
ag214
aVsudo passwd
p1352
aVpasswd root
p1353
aVubuntu sudo
p1354
aVcompte root
p1355
ag1068
aa(lp1356
Vtextutils
p1357
ag779
ag188
aVlynis check
p1358
aVsh
p1359
aVsecurite
p1360
aVsh lynis
p1361
ag850
ag431
aVlynis
p1362
aa(lp1363
g984
ag1007
ag579
ag983
aVorg serviceid
p1364
ag417
ag124
ag122
ag525
ag412
aa(lp1365
Vlannotateur tutoriel
p1366
aVimport org
p1367
aVimport
p1368
ag1300
aVanalysis_component
p1369
aVanalysis_component casannotator_implbase
p1370
aVdevelopper code
p1371
ag1199
aVcasannotator_implbase
p1372
ag191
aa(lp1373
Vremuneree moins
p1374
aVlinflation
p1375
aVsalaire
p1376
aVsalaire letat
p1377
aVpouvoir dachat
p1378
aVattendu crise
p1379
ag820
aVfonctionnaires
p1380
aV10
p1381
ag356
aa(lp1382
Vcron
p1383
aVvia smbfs
p1384
aVfiles
p1385
aVmore
p1386
aVsmbfs
p1387
ag942
ag1310
aVrdiff backup
p1388
aVrdiff
p1389
ag832
aa(lp1390
g73
aVgenerer
p1391
aVjar file
p1392
aVfile export
p1393
aVjar
p1394
aVexport
p1395
aVeclipse ant
p1396
ag1132
ag185
aVant
p1397
aa(lp1398
Vloi scellier
p1399
ag216
aVtitre
p1400
aVreduction dimpot
p1401
aVannees
p1402
ag93
aVloi
p1403
aVdimpot
p1404
aVreduction
p1405
ag455
aa(lp1406
g1157
ag415
aVrouteur
p1407
ag855
ag980
ag348
aVdlink
p1408
aVserveur upnp
p1409
ag981
ag417
aa(lp1410
Vchez
p1411
ag460
aVmaintenant publie
p1412
aVcours chez
p1413
aVchez developpez
p1414
ag302
aV11
p1415
aV11 2009
p1416
aVduml cours
p1417
ag64
aa(lp1418
Vtrouver
p1419
ag714
ag711
ag713
aVapplications
p1420
aVcalendrier
p1421
ag491
ag497
aVagendas
p1422
ag1033
aa(lp1423
g458
ag986
ag54
ag1364
ag1007
ag984
ag417
ag983
ag124
ag122
aa(lp1424
g212
aVinstalle gmobilesync
p1425
aVversion gmobilesync
p1426
ag498
aVmethode
p1427
ag496
aVinstalle
p1428
aVjai installe
p1429
aVgmobilesync gmobilesync
p1430
aVgmobilesync
p1431
aa(lp1432
Vds18b20
p1433
aVsonde
p1434
aVmodule fgbs321
p1435
ag384
ag530
aVapparaitre
p1436
ag871
ag675
aVfgbs321
p1437
ag525
aa(lp1438
g1305
aVlinguistiques
p1439
aVstructure
p1440
aVxmi
p1441
ag1391
ag1199
ag73
ag252
aVfichier xmi
p1442
ag191
aa(lp1443
g236
aVpdftk source
p1444
aVoutput destination
p1445
aVdestination
p1446
aVoutput
p1447
aVdestination pdf
p1448
aVsource pdf
p1449
aVpdftk
p1450
aVsource
p1451
aVpdf
p1452
aa(lp1453
g115
aVrequetes
p1454
ag918
ag129
ag535
ag37
aVconfig
p1455
ag114
aVcgi
p1456
ag119
aa(lp1457
Vdune societe
p1458
ag404
ag401
ag402
ag403
aVenfin multiprise
p1459
ag398
aVenfin pouvoir
p1460
ag400
aVzwavejobhandler 372
p1461
aa(lp1462
Vptr
p1463
aVint matrice
p1464
aVint
p1465
aVcolonne matrice
p1466
ag682
aVligne colonne
p1467
aVmatrice nb_colonnes
p1468
aVcolonne
p1469
aVnb_colonnes
p1470
aVmatrice
p1471
aa(lp1472
Vterratec
p1473
ag1428
aVnassetup exe
p1474
aVexe
p1475
aVsynology ds107e
p1476
aVnoxon
p1477
aVpublic
p1478
aVds107e
p1479
ag410
ag348
aa(lp1480
Vgedit gftp
p1481
aVunison
p1482
aVrsync
p1483
aVunison vlc
p1484
aVbackup rhythmbox
p1485
ag140
aVvlc xournal
p1486
aVdigikam
p1487
aVthunderbird unison
p1488
aVkdevelop
p1489
aa(lp1490
Vnoms
p1491
ag700
aVfichiers jhead
p1492
ag477
aVmetadonnees exif
p1493
aVexif
p1494
ag52
aVdate
p1495
aVdate heure
p1496
aVheure
p1497
aa(lp1498
Vexplicite
p1499
aVautomatique
p1500
aVparticularite
p1501
aVactuellement
p1502
aVphotographies
p1503
aVparticularite nest
p1504
aVmoins
p1505
aVinternet
p1506
ag642
ag545
aa(lp1507
V53
p1508
aV53 252
p1509
ag822
aVdhcp si
p1510
aVmobile defaut
p1511
aVsi lon
p1512
ag312
aVdns
p1513
aVdefaut
p1514
ag37
aa(lp1515
g122
aVrecepteur
p1516
aVtemperature consigne
p1517
aVconsigne
p1518
ag585
aVscs317
p1519
ag50
ag525
ag1211
aVthermostat
p1520
aa(lp1521
Vselect
p1522
ag1313
ag253
aVuima_home examples
p1523
ag1132
ag942
ag191
aVexamples
p1524
ag943
aVuima_home
p1525
aa(lp1526
g1226
ag1256
ag1254
ag50
aVkey fob
p1527
aVkey
p1528
ag585
aVfob
p1529
aVscene
p1530
ag656
aa(lp1531
Vainsi distance
p1532
aVlorsquil
p1533
aVlorsquil existe
p1534
aVtenant
p1535
ag620
aVtenant compte
p1536
aVdistance
p1537
aVroute partie
p1538
aVreglementaire decrets
p1539
aVdetat
p1540
aa(lp1541
Vutf
p1542
aVutf iso_8859
p1543
aV15 fic_source
p1544
aV15
p1545
aVrecognizer
p1546
aViso_8859
p1547
ag73
aVfic_source
p1548
aVutrac
p1549
aViconv
p1550
aa(lp1551
g960
ag30
aVcontent_type
p1552
ag958
ag33
ag25
ag54
aVfwsapi
p1553
ag961
aVpost
p1554
aa(lp1555
V2009 cours
p1556
aVlangage ocl
p1557
aVobject
p1558
aVdiagram diagramme
p1559
aVdiagram diagrammes
p1560
ag594
ag592
ag64
ag595
aVdiagram
p1561
aa(lp1562
Vlagenda google
p1563
aVlagenda
p1564
aVlauncher v1
p1565
aVlauncher total
p1566
aVfunambol synchronisation
p1567
aVgoogle_ad_section_end
p1568
aVgoogle maps
p1569
aVv1 40
p1570
ag1033
aVlauncher
p1571
aa(lp1572
g1459
ag398
ag401
aVlivre lenergie
p1573
aVquestions
p1574
aVlenergie
p1575
ag272
aV21
p1576
aVlenergie 21
p1577
aV21 questions
p1578
aa(lp1579
Vfgfs 101
p1580
ag468
aV101
p1581
aVbouton tmp
p1582
aVfgfs
p1583
ag530
aVfibaro flood
p1584
aVflood sensor
p1585
aVflood
p1586
ag462
aa(lp1587
Vcertains fichiers
p1588
aVtranscode fichiersource
p1589
ag540
aVfreeboxhd parvient
p1590
aVentre limage
p1591
aVtranscode cible
p1592
aVxvid
p1593
aVcible
p1594
aVtranscode
p1595
aVavi
p1596
aa(lp1597
Vfichier partition
p1598
ag1451
aVtruecrypt truecrypt
p1599
ag866
ag185
ag1093
aVmonter
p1600
ag370
ag73
aVtruecrypt
p1601
aa(lp1602
Vnoxon freebox
p1603
aVdi 704p
p1604
aVfreebox freebox
p1605
aV704p
p1606
aVfreebox dlink
p1607
aVdlink di
p1608
ag1056
ag1477
ag1408
ag180
aa(lp1609
Vpasse
p1610
ag1068
aVdropbear
p1611
aVmot
p1612
aVssh id_rsa
p1613
aVid_rsa
p1614
aVpc
p1615
ag495
aVcle
p1616
ag553
aa(lp1617
V2016
p1618
aV2015
p1619
ag169
aVelseif
p1620
aVthen true
p1621
aVand
p1622
ag713
ag28
ag54
ag31
aa(lp1623
g191
aVworkflow
p1624
aVworkflow controller
p1625
aVprocessing engine
p1626
aVprocessing
p1627
aVcollection processing
p1628
ag187
ag547
ag629
aVcollection
p1629
aa(lp1630
Vconcernant
p1631
ag1058
aVamericain
p1632
aVprogramme
p1633
aVedward
p1634
ag812
aVsnowden
p1635
aVedward snowden
p1636
ag670
aVprism
p1637
aa(lp1638
Vformels
p1639
ag30
aVnaturel
p1640
aVlangages formels
p1641
ag10
aVlinguistique informatique
p1642
ag268
aVlangages
p1643
ag803
aVlinguistique
p1644
aa(lp1645
g183
aVdeclarative
p1646
aVonglet
p1647
ag506
ag629
ag191
aVtypes
p1648
aVdescripteur composant
p1649
ag1201
aVdescripteur
p1650
aa(lp1651
Vsyslog server
p1652
ag500
ag910
ag180
ag908
aVnotification
p1653
ag415
ag1215
ag410
aVsyslog
p1654
aa(lp1655
Vprincipal gestionnaire
p1656
aVgestionnaire stockage
p1657
aVraid
p1658
aVstockage
p1659
aVvolume volume
p1660
ag1134
aVprincipal
p1661
aVmenu principal
p1662
ag866
ag294
aa(lp1663
Vwp super
p1664
ag376
aVarticles
p1665
aVextensions
p1666
ag446
ag439
aVhtml editor
p1667
aVadministration
p1668
ag959
aVeditor
p1669
aa(lp1670
Vdocumentation
p1671
ag212
ag1296
aVlinterface gestion
p1672
ag296
ag37
ag930
ag116
aVgestion
p1673
ag535
aa(lp1674
Vgestionnaire bibliographique
p1675
ag957
aVcomme gestionnaire
p1676
aVhevea
p1677
aVpasser
p1678
aVcours editer
p1679
ag973
aVconseille
p1680
ag1283
ag76
aa(lp1681
g1582
aVdouverture fgk
p1682
ag468
ag871
aVdetecteur douverture
p1683
ag1581
aVdouverture
p1684
aVfgk
p1685
aVfgk 101
p1686
ag675
aa(lp1687
g309
aVaussi saisir
p1688
aValt del
p1689
ag264
ag791
aVterminal commande
p1690
ag132
aVredemarrer serveur
p1691
ag415
aVredemarrer
p1692
aa(lp1693
g37
ag212
ag952
aV01 05
p1694
aV01
p1695
ag554
aV05
p1696
ag584
ag549
ag50
aa(lp1697
Vacceder
p1698
aVacceder parametres
p1699
aVmonparametre
p1700
aVgetcontext
p1701
aVstring monparametre
p1702
aVmachaine
p1703
aVinitialize
p1704
ag852
aVuimacontext
p1705
ag512
aa(lp1706
g584
ag1254
ag1256
ag50
ag116
ag1226
aVproblemes
p1707
ag656
ag464
ag585
aa(lp1708
Vapplications mimeapps
p1709
aV10 editeur
p1710
ag73
aVproprietes kile
p1711
aVdefault applications
p1712
aVproprietes
p1713
aVlocal share
p1714
aVdediter
p1715
ag1420
ag363
aa(lp1716
g1528
ag417
aVjosdblog
p1717
aVsuperieur
p1718
aVjosdblog scene
p1719
aVtonumber
p1720
aVlintensite lumineuse
p1721
ag1530
aVlumineuse
p1722
aVlintensite
p1723
aa(lp1724
Vprincipe degalite
p1725
ag820
aVavant
p1726
aVdegalite
p1727
aVlegalite
p1728
ag793
aVtous
p1729
ag236
aVexemple
p1730
aVdifference
p1731
aa(lp1732
g145
aV468
p1733
aVoctets
p1734
aVmo
p1735
aVformat
p1736
aVsagit
p1737
aVtabulaire
p1738
ag73
ag191
aVcorpus
p1739
aa(lp1740
g431
aVnumlockx verr
p1741
ag231
aVtrouve
p1742
aVrepository ppa
p1743
aVrepository
p1744
aVnumlockx then
p1745
ag1007
ag214
aVnumlockx
p1746
aa(lp1747
g126
ag127
aVsorties
p1748
aVa3 a1
p1749
aVa3
p1750
ag125
aV00
p1751
aVentrees
p1752
aVparametrage
p1753
aVpush
p1754
aa(lp1755
Vmodifier
p1756
aVlorsque
p1757
aVcommande tant
p1758
aVedition
p1759
aVdefaut fichier
p1760
aVedition profils
p1761
aVlorsque option
p1762
aVbash_profile
p1763
ag132
aVconnexion
p1764
aa(lp1765
g1718
ag1411
ag642
aVfabrication
p1766
ag90
aVcelui dune
p1767
aVlampe
p1768
aVcause
p1769
aVlampes
p1770
aVelles
p1771
aa(lp1772
Vlingua
p1773
aVusr
p1774
aVshare
p1775
aVrc
p1776
ag1739
aVlingua yatea
p1777
aVshell
p1778
ag10
aVcpan
p1779
aVyatea
p1780
aa(lp1781
Vfrance telecom
p1782
aVlegrand
p1783
aVtintement
p1784
ag835
ag898
aVfil ligne
p1785
aVfil
p1786
ag375
ag412
ag682
aa(lp1787
Veduroam
p1788
aVluniversite
p1789
aVparis13
p1790
ag1610
aVuniv paris13
p1791
aVuniv
p1792
ag1612
aVparis13 fr
p1793
aVmot passe
p1794
ag159
aa(lp1795
g869
ag784
ag871
ag581
ag585
ag428
ag549
ag584
aVvera vera
p1796
ag50
aa(lp1797
g185
ag1200
ag187
ag183
ag547
ag188
ag190
ag191
ag189
ag192
aa(lp1798
g30
ag1203
aVfunction return
p1799
ag512
ag1263
ag798
ag1244
ag25
ag33
ag54
aa(lp1800
g822
ag116
ag713
aVverts
p1801
aVdechets menagers
p1802
ag642
aVdechets verts
p1803
aVmenagers
p1804
aVsigidurs
p1805
aVdechets
p1806
aa(lp1807
g956
ag129
aV8080 fsimple
p1808
aVtostring
p1809
ag960
ag961
aVfsimple
p1810
ag33
ag54
ag958
aa(lp1811
g431
ag803
aVintroduction monde
p1812
ag481
ag64
aVmonde dunix
p1813
aVfiltres
p1814
aVintroduction
p1815
aVdunix
p1816
aVmonde
p1817
aa(lp1818
Vedimax
p1819
ag297
ag779
aVmake
p1820
ag108
aVmbps
p1821
aVusb
p1822
aVwi
p1823
aVfi
p1824
aVwi fi
p1825
aa(lp1826
Vresolution active
p1827
ag415
ag742
aVinformations
p1828
aVafficher informations
p1829
aVchaque
p1830
aVchaque ecran
p1831
aVecran connecte
p1832
aVactive
p1833
aVxrandr
p1834
aa(lp1835
g114
ag930
ag931
ag410
ag37
ag505
ag1059
ag394
ag1058
ag535
aa(lp1836
Vbillet sujet
p1837
aVpouvoir demarrer
p1838
aVwindows pouvoir
p1839
aVdune entree
p1840
aVjusqua
p1841
aVentree
p1842
ag486
aVpouvoir
p1843
ag1134
ag297
aa(lp1844
Vswitcher image
p1845
aVadblock
p1846
aVthunderbird nostalgy
p1847
aVcomplementaires
p1848
aVcomplementaires concernant
p1849
ag1285
ag583
ag1033
aVmodules complementaires
p1850
ag1631
aa(lp1851
Vselectionner
p1852
aVautomatiquement
p1853
ag561
aVdemarrer parametres
p1854
aVinternet automatiquement
p1855
aVwap
p1856
aVparametres connexions
p1857
ag852
ag1506
aVconnexions
p1858
aa(lp1859
Vfrancais
p1860
ag431
aVtouche
p1861
aVsolution
p1862
ag1216
ag1007
aVvirgule
p1863
ag214
aVclavier
p1864
ag578
aa(lp1865
Vsource media
p1866
aVtoto source
p1867
aVhome toto
p1868
aVtoto
p1869
ag139
ag1483
ag468
aVsource destination
p1870
ag1446
ag1451
aa(lp1871
Vcomposer
p1872
ag187
aVdecrit fichier
p1873
aVfichier xml
p1874
aVanalysis engines
p1875
aVtype system
p1876
aVts
p1877
aVchaque composant
p1878
ag629
ag191
aa(lp1879
g1822
ag129
aVcp210x
p1880
ag828
ag908
ag410
ag554
ag1296
ag157
ag413
aa(lp1881
Vtunisie
p1882
aVtype prise
p1883
aVmm
p1884
aVelectrique
p1885
aVbroche
p1886
ag1730
aVprise electrique
p1887
aVterre
p1888
ag30
ag412
aa(lp1889
g1136
aVdoigts
p1890
aVsynclient clickfinger3
p1891
aVclic trois
p1892
aVclic
p1893
aVtrois doigts
p1894
aVtouchpad
p1895
aVcommandes
p1896
aVtrois
p1897
aVsynclient
p1898
aa(lp1899
g342
aVcote
p1900
aVsynology data
p1901
aVetape
p1902
ag831
aVvolume1 data
p1903
ag908
ag410
ag1313
ag921
aa.(lp1
(lp2
Vadministration impression
p3
aVcupsys
p4
aVetc
p5
aVimprimante
p6
aVconf
p7
aVetc cups
p8
aVcups cupsd
p9
aVcupsd conf
p10
aVcupsd
p11
aVcups
p12
aa(lp13
Vpassage pietons
p14
aVpietons regulierement
p15
aVchaussee code
p16
aVtraversee dune
p17
aVtraversee
p18
aVdune chaussee
p19
aVceder passage
p20
aVceder
p21
aVr415
p22
aVtout conducteur
p23
aa(lp24
Vbloc instructions
p25
aVelse
p26
aVtype
p27
aVinstructions
p28
aVbloc
p29
aVfalse
p30
aVtrue
p31
aVlua
p32
aVend
p33
aVprint
p34
aa(lp35
Vtrafic
p36
aVmaps
p37
aVmaster
p38
aVeduroam
p39
aVmap
p40
aVkids
p41
aVjewels
p42
aVjeux
p43
aVgps
p44
aVbebe
p45
aa(lp46
Vsmtp
p47
aVimage
p48
aVimages
p49
ag33
aVobjet
p50
aVmessage
p51
aVcontent
p52
aVlocal
p53
aVcourriel
p54
aVjpg
p55
aa(lp56
Vprogrammation logique
p57
aVpropositions logique
p58
aVpropositions
p59
aVraisonnement valide
p60
aVraisonnement
p61
aVsures langage
p62
aVlogiques
p63
aVriche permettre
p64
aVcours
p65
aVlogique
p66
aa(lp67
Vucs
p68
aVtex latex
p69
aVlatex unicode
p70
aVtex
p71
aVtexmf tex
p72
aVdef
p73
aVtexhash
p74
aVunicode
p75
aVtexmf
p76
aVlatex
p77
aa(lp78
Vperiode
p79
aVloyer ete
p80
aVcharges montant
p81
aVlocataire
p82
aVcharges
p83
aVmontant
p84
aVpaye
p85
aVquittance
p86
aVquittance loyer
p87
aVloyer
p88
aa(lp89
Vequipements
p90
aVproprietaire
p91
aVfaire etat
p92
aVlogement
p93
aVletat lieux
p94
aVletat
p95
ag82
aVetat
p96
aVetat lieux
p97
aVlieux
p98
aa(lp99
Vgnome kdesudo
p100
aVcommande sudo
p101
aVgksudo gnome
p102
aVsudo gksudo
p103
aVsudo do
p104
aVkdesudo
p105
aVsudo commande
p106
aVsudo sudo
p107
aVkdesudo kde
p108
aVsudo
p109
aa(lp110
Vfoyer
p111
aVbien plus
p112
aVboitier
p113
aVnuit
p114
aVlink
p115
aVdome
p116
aVlink dcs
p117
aVdcs 2230
p118
aV2230
p119
aVdcs
p120
aa(lp121
Vbr
p122
aV44 3480
p123
aV3480
p124
aVrequete
p125
aVhttp
p126
aVurn
p127
aVserviceid
p128
aVid
p129
aVdata_request
p130
aVdata_request id
p131
aa(lp132
Vmail
p133
aVthunderbird profile
p134
aVhome thunderbird
p135
aVhome thunderbird_mail
p136
aVprofile home
p137
aVprofile
p138
aVhome
p139
aVthunderbird_mail
p140
aVthunderbird thunderbird
p141
aVthunderbird
p142
aa(lp143
Vdisques df
p144
aVdf
p145
aVdf connaitre
p146
aVnom_rep
p147
aVrepertoires compris
p148
aVrepertoire nom_rep
p149
aVconnaitre loccupation
p150
aVespaces stockage
p151
aVconnaitre taille
p152
aVconnaitre
p153
aa(lp154
Vslate
p155
aVslate fr
p156
aVpiege vie
p157
aVeleves recopiaient
p158
aVdissertations professeur
p159
aVdissertations
p160
aVlettres decide
p161
aVvie moderne
p162
aVdenseignement lycee
p163
aVannee denseignement
p164
aa(lp165
Vpeut etre
p166
aV2014
p167
aVressources
p168
aVrevision
p169
aVloyers ressources
p170
aVplafonds loyers
p171
aVloyers
p172
aVplafonds
p173
ag88
aVbail
p174
aa(lp175
Vfreeboxtv
p176
aVm3u
p177
aVplaylist
p178
aVplaylist m3u
p179
aVhttp mafreebox
p180
aVfr freeboxtv
p181
aVfreeboxtv playlist
p182
aVmafreebox
p183
aVfreebox fr
p184
aVmafreebox freebox
p185
aa(lp186
Vcomposant
p187
aVanalysis engine
p188
aVengine
p189
aVengine descriptor
p190
aVtutoriel uima
p191
aVuimai tutoriel
p192
aVuima
p193
aVuimai
p194
aVtutoriel uimai
p195
aVtutoriel
p196
aa(lp197
Vcommentmetadata
p198
aVauthor vcard
p199
aVcomment author
p200
aVmeta commentmetadata
p201
aVdit comment
p202
aVvcard
p203
aVscie
p204
aVauthor
p205
aVcomment meta
p206
aVcomment
p207
aa(lp208
Vlynx
p209
aVlynx ubuntu
p210
aVete confronte
p211
aVdirectory ubuntu
p212
aV04 the
p213
aVaucun fichier
p214
aVmessage aucun
p215
aV10 04
p216
aVthe lucid
p217
aVubuntu
p218
aa(lp219
Vscellier
p220
aVrevenu
p221
aVfinancieres
p222
aVregime
p223
aVdeficit
p224
aVfoncier
p225
aVrevenus fonciers
p226
ag83
aVfonciers
p227
aVrevenus
p228
aa(lp229
Vligne commande
p230
aVcommande
p231
aVopt
p232
aVinstaller
p233
aVsmtp smtp
p234
aVmail ligne
p235
aVinstaller nail
p236
ag133
ag47
aVnail
p237
aa(lp238
Vexecutable
p239
aVsuffit taper
p240
aVldd
p241
aVtaper ldd
p242
aVliste dependances
p243
aVexecutable suffit
p244
aVdependances dun
p245
aVconnaitre liste
p246
aVdun executable
p247
aVdependances
p248
aa(lp249
Vlors lexecution
p250
aVanalyser vm
p251
ag193
aVdocument analyzer
p252
aVanalyzer
p253
aVrun
p254
aVloutil
p255
aVdocument
p256
aVloutil document
p257
aVjava
p258
aa(lp259
Vf1
p260
aVctrl alt
p261
aValt f1
p262
aVf1 f6
p263
aValt f7
p264
aVf6
p265
aVf6 login
p266
aVf7
p267
aVlogin alt
p268
aValt
p269
aa(lp270
Vlangage
p271
aV1amp
p272
aVatelier
p273
aVlangage sql
p274
aVamazon
p275
aVlivre
p276
aVsql
p277
aVbases
p278
aVbases donnees
p279
aVdonnees
p280
aa(lp281
Vsecurite routiere
p282
aVcest tout
p283
aVlademe conduire
p284
aVni
p285
aVcest
p286
aVdun
p287
aVville
p288
aVmoquer
p289
aVcest moquer
p290
aV44
p291
aa(lp292
Vsound applet
p293
aVsuffit sassurer
p294
aVapplet outils
p295
aVlicone
p296
aVgnome classic
p297
aVlicone volume
p298
aVclassic
p299
aVapplet
p300
aVvolume
p301
aVgnome
p302
aa(lp303
Vprogrammes windows
p304
aVprogrammes windowsmenu
p305
aVwindowsmenu demarrerprogrammes
p306
aVwindowsmenu
p307
aVdemarrerprogrammes
p308
aVmettre lordre
p309
aVnecessaire mettre
p310
aVvite necessaire
p311
aVlordre page
p312
aVprogrammes
p313
aa(lp314
Vtactile jai
p315
aVcontinuellement
p316
aVadresse
p317
aVterminal
p318
aVcommentaire
p319
aVentry
p320
aVpubliee
p321
aVtitle
p322
aVcite
p323
aVtomtom
p324
aa(lp325
Vtabcolsep
p326
aVcentering centering
p327
aVtabularnewline
p328
aVtabularnewline hline
p329
aVtabular
p330
aVhline
p331
aVcentering
p332
aVusepackage usepackage
p333
aVusepackage
p334
aVtextbf
p335
aa(lp336
Vmobiles
p337
aV3g 3g
p338
aVhspa
p339
aV3g 4g
p340
aVmobiles edge
p341
aVreseaux mobiles
p342
aVedge
p343
aV4g
p344
aVedge 3g
p345
aV3g
p346
aa(lp347
Vmediaserver ini
p348
aVwget
p349
aVmediaserver
p350
aV9000 rpc
p351
aVtwonkyvision twonkyvision
p352
aVrpc
p353
aVrpc rebuild
p354
aVrebuild
p355
aVtwonkyvision
p356
aVtwonkymedia
p357
aa(lp358
Vdufr
p359
aVuniversitaire
p360
aVchercheur
p361
aVmemoires
p362
aVheures hebdomadaires
p363
aVrapports reunions
p364
aVheures
p365
aVrapports
p366
aVconseils
p367
aVreunions
p368
aa(lp369
Vxml
p370
aVshare
p371
aVapps
p372
aVkatepart
p373
aVkatepart syntax
p374
aVsyntax latex
p375
aVapps katepart
p376
aVsyntax
p377
aVlatex xml
p378
ag77
aa(lp379
Vpartition
p380
aVtelephone
p381
aVfaire wipe
p382
aVdalvik cache
p383
aVwipe dalvik
p384
aVdalvik
p385
aVcache partition
p386
aVwipe cache
p387
aVcache
p388
aVwipe
p389
aa(lp390
Vcouple
p391
aVdroit
p392
aVdeux
p393
aVmeme
p394
aVmariage
p395
aVpersonnes meme
p396
aVmeme sexe
p397
aVdeux personnes
p398
aVsexe
p399
aVpersonnes
p400
aa(lp401
Vusr syno
p402
aVsu
p403
aVsu admin
p404
aVs20pgsql sh
p405
aVs20pgsql
p406
aVrc s20pgsql
p407
aVstation
p408
aVphoto
p409
aVphoto station
p410
aVcommentaires
p411
aa(lp412
Venfin nouvelle
p413
aVenfin lalimentation
p414
aVenfin longlet
p415
aVenfin lors
p416
aVenfin lun
p417
aVenfin metro
p418
aVenfin limportance
p419
aVwinff ffmpeg
p420
aVwinff
p421
aVffmpeg
p422
aa(lp423
Vcommutateur zwave
p424
aVprise
p425
aVcommutateur
p426
aVprise commutateur
p427
ag113
aVsynozwave
p428
aVserveur
p429
aVboitier freebox
p430
aVfreebox
p431
aVfreebox serveur
p432
aa(lp433
Vfile service
p434
aVimplementation file
p435
aVdevice
p436
aVservice file
p437
aVfile luup
p438
aVplugins
p439
aVluup plugins
p440
aVplugin
p441
aVfile
p442
aVluup
p443
aa(lp444
Vcapteurs
p445
aVcapteurs tag
p446
aVtester capteurs
p447
aVcentrale
p448
aValarme
p449
aVcapteur
p450
aVlalarme
p451
aVcapteur tag
p452
aVtag
p453
aVmyfox
p454
aa(lp455
Vby websitedefender
p456
aVwebsitedefender
p457
aVsecurity
p458
aVwp security
p459
aVblog wordpress
p460
aVwp
p461
aVtxt
p462
aVrobots txt
p463
aVrobots
p464
aVwordpress
p465
aa(lp466
g88
aV48 20
p467
aVlibre
p468
aVannees
p469
aVdispositif scellier
p470
aVloyer plus
p471
aVscellier libre
p472
aVscellier intermediaire
p473
aVintermediaire
p474
ag220
aa(lp475
Vcom serviceid
p476
ag127
ag128
aVsensor motion
p477
aVin sensor
p478
aV_4
p479
aV_4 in
p480
aVsensor
p481
aVmotion
p482
aVmultisensor
p483
aa(lp484
g302
aVtmp
p485
aVpreferences
p486
ag372
aVnautilus
p487
aVapps nautilus
p488
aVpreferences always_use_browser
p489
aVtmp var
p490
aValways_use_browser
p491
aVnautilus preferences
p492
aa(lp493
Vfichiers
p494
aVmetadonnees
p495
aVcoherence
p496
aVtags
p497
aVmusicaux
p498
aVid3 fichiers
p499
aVfichiers musicaux
p500
aVtags id3
p501
aVprojet
p502
aVid3
p503
aa(lp504
Vdune
p505
aVbailleur
p506
aVcontrat location
p507
ag93
ag174
ag91
aVcontrat
p508
aVlocation
p509
ag82
aVclause
p510
aa(lp511
Vsyncml device
p512
aVwifi exemple
p513
aVsinscrire scheduleworld
p514
aVsmartphone plug
p515
aVagenda fois
p516
aVclient
p517
aVclient funambol
p518
aVagenda
p519
aVfunambol
p520
aVscheduleworld
p521
aa(lp522
Vprivileges
p523
aVconfiguration
p524
aVsynology
p525
aVdomaine
p526
aVutilisateur
p527
aVweb
p528
aVnom
p529
aVftp
p530
aVnom domaine
p531
ag465
aa(lp532
Vhttps
p533
aVstring
p534
aVsecret
p535
aVclient id
p536
aVclient secret
p537
aVapi
p538
ag129
ag517
ag454
ag53
aa(lp539
Vdepend
p540
aVrepertoire
p541
aVlancer lapplication
p542
aVdepend lapplication
p543
aVouestleprogram
p544
aVlibrairies dont
p545
aVdont depend
p546
aVougenererlepackage
p547
aVscript
p548
aVlapplication
p549
aa(lp550
Vfgss 001
p551
aV001
p552
aVfumee
p553
aVfgss
p554
aVfirmware
p555
aVfibaro
p556
aVfibaro smoke
p557
ag481
aVsmoke sensor
p558
aVsmoke
p559
aa(lp560
Vtres fluide
p561
aVimage tres
p562
aVsecondes decalage
p563
aVsecondes
p564
aVfluide secondes
p565
aVfonctionne
p566
aVdecalage
p567
aVimage fluide
p568
ag48
aVfluide
p569
aa(lp570
g442
aVconfigure comme
p571
aVanalysis
p572
ag188
ag190
ag189
aVtraitement
p573
aVaggregate
p574
aVdescriptor
p575
ag193
aa(lp576
Vecho
p577
aVcmh
p578
aVluaupnp
p579
aVfichier log
p580
aVcode
p581
ag443
ag32
aVvera
p582
aVssh
p583
aVlog
p584
aa(lp585
Vsysteme
p586
aVportable demarrer
p587
aVlordinateur portable
p588
aVbasculer
p589
aVdemarrer
p590
aVvideo
p591
aVvideo projecteur
p592
aVprojecteur
p593
aVdemarrer systeme
p594
aVportable
p595
aa(lp596
Vmicrosoft impose
p597
aVmicrosoft com
p598
aVdisque plus
p599
aVmicrosoft
p600
aVformater
p601
aVwindows
p602
aV32go
p603
aVntfs
p604
aVfat32
p605
aVsysteme fichier
p606
aa(lp607
Vuml
p608
aVdoit
p609
aVproposer
p610
aVcombats
p611
ag502
aVlapplication doit
p612
ag549
aVcombat
p613
aVsous marins
p614
aVmarins
p615
aa(lp616
Vprivilegier
p617
aVmodules
p618
ag454
ag582
aVwave
p619
aVlintelligence domotique
p620
aVcriteres
p621
aVlintelligence
p622
aVdomotique
p623
aVchoix
p624
aa(lp625
Vlapprentissage pratique
p626
aVfnac
p627
aVuml lapprentissage
p628
aVlapprentissage
p629
aVpratique
p630
ag608
ag276
ag275
aVdiagrammes
p631
aVdiagramme
p632
aa(lp633
Vglycerine
p634
aVsavon
p635
aVgold class
p636
aVgold
p637
aVsavon marseille
p638
aVclass cuir
p639
aVchiffon
p640
aVmarseille
p641
aVcuir
p642
aVmeguiars
p643
aa(lp644
Vname
p645
ag256
aVclasspath
p646
ag27
ag254
ag252
ag253
ag575
ag442
ag193
aa(lp647
Vmot
p648
aVelements
p649
ag256
ag33
ag624
ag193
aVbegin
p650
aVdannotations
p651
aVbegin end
p652
aVannotations
p653
aa(lp654
Vjante
p655
aVserrage
p656
aVhiver pneus
p657
aVneige
p658
aVpneus ete
p659
aVpneu
p660
aVjantes
p661
aVpneus hiver
p662
aVhiver
p663
aVpneus
p664
aa(lp665
Vfmg
p666
aVdassurance
p667
aVfrais
p668
aVdemprunt
p669
ag221
aVn2044
p670
aVdeclaration
p671
aVlannee
p672
aVinterets
p673
aVpret
p674
aa(lp675
Vsilencieux
p676
aVevercool
p677
aVnexus
p678
aVdessous modele
p679
aVplus silencieux
p680
aVsys module
p681
aVdont specifications
p682
aVcompatible
p683
aVcheck_fan
p684
aVventilateur
p685
aa(lp686
Vetc sudoers
p687
ag403
aVsudoers
p688
aVrequiretty
p689
aVall all
p690
aVdefaults requiretty
p691
aVuser su
p692
aVuser
p693
aVall
p694
aVsudogr
p695
aa(lp696
Vreseau acces
p697
aVwindows virtualbox
p698
aVvirtualbox ubuntu
p699
aVpont
p700
aVreseau mode
p701
aVacces pont
p702
aVperipheriques cartes
p703
aVcartes reseau
p704
aVdacces reseau
p705
aVreseau
p706
aa(lp707
Vtime
p708
aVsgbd relationnel
p709
aVreleves
p710
aVseries chronologiques
p711
aVchronologiques
p712
aVinfluxdb
p713
ag280
aVgraphite
p714
aVseries
p715
aVsgbd
p716
aa(lp717
V_generic io
p718
aVdetecteur
p719
ag557
aVsensor fgss
p720
ag552
ag551
ag554
ag481
ag558
ag559
aa(lp721
Vmesure ponctualite
p722
aVdavoir incident
p723
aVtrain
p724
aVincidents
p725
aVprobabilite davoir
p726
aVdavoir
p727
aVincident
p728
aVprobabilite
p729
aVtrajet
p730
aVponctualite
p731
aa(lp732
Vadvanced
p733
aVservice variables
p734
aVvariables add
p735
aVdevicesettings advanced
p736
ag372
aVservice
p737
aVnew
p738
ag436
aVdevicesettings
p739
aVnew service
p740
aa(lp741
Vgid dun
p742
aVutilisateur usermod
p743
aVusermod
p744
aVggid
p745
aVluid
p746
aVchanger
p747
aVgid
p748
aVutilisateur changer
p749
aVdun utilisateur
p750
ag527
aa(lp751
Vchown nobody
p752
aVnobody blog
p753
aVnobody nobody
p754
aVrestaure proprietaire
p755
aVblog fois
p756
aVdune tentative
p757
aVmise
p758
aVjour
p759
aVmise jour
p760
aVnobody
p761
aa(lp762
Vsygic
p763
aVrupi
p764
aVwaze
p765
aVnavigation
p766
aVov2
p767
aVbmp
p768
aVandroid
p769
ag324
aVpoi
p770
aVmespoi
p771
aa(lp772
Vjeu caracterises
p773
aV2011 sujet
p774
aVpersonnages
p775
aVpersonnages puis
p776
aVapplication
p777
ag258
ag608
ag610
ag502
aVcombattants
p778
aa(lp779
Vmodule mettre
p780
aVmettre etc
p781
aVinsmod
p782
aVafficher
p783
aVafficher messages
p784
aVmessages noyau
p785
aVmodule
p786
aVmessages
p787
aVsbin
p788
aVnoyau
p789
aa(lp790
Vreport faut
p791
aVutilise article
p792
aVdocument lon
p793
aVbook report
p794
aVlune deux
p795
aVrenewcommand bibname
p796
aVdocument french
p797
aVsuivant classe
p798
ag256
aVrenewcommand
p799
aa(lp800
Vcommande taper
p801
aVcolonne tri
p802
aVfiltrer suivant
p803
aVsuivant utilisateur
p804
aVtri taper
p805
aVredefinir priorite
p806
ag231
aVprocessus
p807
aVprocessus taper
p808
aVtaper
p809
aa(lp810
Vgarant
p811
aVmeme logement
p812
aVgerer meme
p813
ag506
aVsolidaire
p814
aVlocatif
p815
aVlogement locatif
p816
ag82
ag93
aVcaution
p817
aa(lp818
Vfdisk
p819
aVsudo grub
p820
aVmrb windows
p821
aVfdisk mbr
p822
aVwinnt boot
p823
aVboot
p824
aVbootpart
p825
aVlinux
p826
aVgrub
p827
ag602
aa(lp828
Vlecture seule
p829
aVfaut rendre
p830
aVmodifier limite
p831
aVlongues
p832
aV1024 caracteres
p833
aV1024
p834
aVmode lecture
p835
aVlignes trop
p836
aVtrop longues
p837
aVlimite
p838
aa(lp839
Vpropriete fichiers
p840
aVutilisateur particulier
p841
aVconnecter bureau
p842
aVf1 exemple
p843
aVpossible quil
p844
aVproblemes propriete
p845
aVfichiers repertoire
p846
aVquil
p847
aVconnecter
p848
aVpeut connecter
p849
aa(lp850
Vfunction
p851
aVreturn
p852
aVload average
p853
aVload
p854
aVaverage
p855
aVping
p856
ag33
aVcommande systeme
p857
ag231
ag53
aa(lp858
Vnen possede
p859
aVnotices fiches
p860
aVfiches papier
p861
aVfiches
p862
aVprojet systeme
p863
aVnotices
p864
aVinformatique
p865
ag502
aVdune bibliotheque
p866
aVbibliotheque
p867
aa(lp868
Vtowards
p869
aVselection
p870
aVmanagement
p871
aVarchitecture
p872
aVunstructured information
p873
aVinformation management
p874
aVunstructured
p875
aVmanagement architecture
p876
aVinformation
p877
ag193
aa(lp878
Vavoue
p879
aVdenonciation
p880
aVjoueurs
p881
aVdilemme
p882
aVcooperation
p883
aVans
p884
aVlautre
p885
ag393
aVans prison
p886
aVprison
p887
aa(lp888
g541
aVsauvegarde
p889
aVarchive
p890
aVvolumeusb1
p891
aVvolumeusb1 usbshare
p892
aVvolume1 backup
p893
aVusbshare
p894
aVusbshare archive
p895
aVbackup
p896
aVvolume1
p897
aa(lp898
Vrj11 vers
p899
aVcontacts centraux
p900
aVdeux contacts
p901
aVprise telephone
p902
aVprise rj45
p903
aVtelephone prise
p904
aVprise rj11
p905
ag425
aVrj45
p906
aVrj11
p907
aa(lp908
Vps
p909
aVtop
p910
aVbin
p911
aVshared
p912
ag442
ag232
aVinstall
p913
aVipkg install
p914
aVpkg
p915
aVipkg
p916
aa(lp917
Vdattente
p918
aVajouter
p919
aVserveur dimpression
p920
ag529
aVport suivant
p921
aVdimpression
p922
ag6
aVsuivant suivant
p923
aVport
p924
aVsuivant
p925
aa(lp926
Vnouveau disque
p927
aVpreparer
p928
aVboitier externe
p929
aVsdl
p930
ag525
aVassistant
p931
aVsynology assistant
p932
aVdisque dur
p933
aVdur
p934
aVdisque
p935
aa(lp936
Vclignotement
p937
aV_motion
p938
aV_motion sensor
p939
aVviolet
p940
aVbouton
p941
ag481
aVled
p942
ag552
aVfgms 001
p943
aVfgms
p944
aa(lp945
Vfonctions
p946
ag279
aVligne
p947
aVtravaux
p948
aVversion editee
p949
aVversion ligne
p950
aVeditee
p951
ag276
aVversion
p952
ag277
aa(lp953
Vmorpho
p954
aVencode
p955
aVmorpho syntaxique
p956
aVscript dinstallation
p957
ag548
aVtelecharger
p958
aVtree
p959
aVtree tagger
p960
aVtagger
p961
aVtreetagger
p962
aa(lp963
Vsql nombreuses
p964
ag65
aVnombre
p965
ag947
ag948
ag951
ag949
ag950
ag276
ag952
aa(lp966
Vlanguage base
p967
aVcours structured
p968
aVsql table
p969
ag271
ag65
ag277
ag274
ag278
ag279
ag280
aa(lp970
Vgouvernement
p971
aVessence
p972
aVdazote
p973
aVgazole
p974
aVco2
p975
aVresponsables
p976
aVdeces
p977
aVparticules
p978
aVvehicules
p979
aVdiesel
p980
aa(lp981
Vpublic
p982
aVnas
p983
aVstick
p984
aVnas synology
p985
ag848
aVpaquets
p986
ag525
aVsynozwave synozwave
p987
ag619
ag428
aa(lp988
g82
ag220
aVlengagement
p989
aVdeclaration revenus
p990
aVformulaire
p991
aVcopie
p992
aVn2042
p993
ag228
ag670
ag671
aa(lp994
Vapt get
p995
aVraspbian
p996
aVberryboot
p997
ag583
aVnfs
p998
ag109
aVraspberry pi
p999
aVraspberry
p1000
aVpi sudo
p1001
aVpi
p1002
aa(lp1003
Vposseder entree
p1004
ag623
aVmouvement
p1005
aVdetection mouvement
p1006
aVip
p1007
aVcas detection
p1008
aVdetection
p1009
aVcamera ip
p1010
aVbox
p1011
aVcamera
p1012
aa(lp1013
Vip link
p1014
ag117
ag119
ag118
ag120
ag115
ag1007
ag1010
ag524
ag1012
aa(lp1015
Vbionlp
p1016
aVwith
p1017
aVto
p1018
aVwe
p1019
aVof
p1020
aVbased
p1021
aVontology
p1022
aVtask
p1023
aVmeasure
p1024
aVthe
p1025
aa(lp1026
Vscreen screen
p1027
aVscreen ctrl
p1028
aVlancer screen
p1029
aVscreen lancer
p1030
aVpuis
p1031
aVscreen nom_du_screen
p1032
aVnom_du_screen
p1033
aVctrl
p1034
aVctrl puis
p1035
aVscreen
p1036
aa(lp1037
g32
aVlocalhost
p1038
aVhttp localhost
p1039
aVlocalhost 8080
p1040
aVgestionnaire
p1041
aVcoroutine
p1042
aVhtml
p1043
aV8080
p1044
aVxavante
p1045
aVwsapi
p1046
aa(lp1047
Vcarnivore
p1048
aVentites
p1049
aVentites nommees
p1050
aVptprince txt
p1051
aVenamex
p1052
aVnommees
p1053
ag462
aVptprince
p1054
aVmucfr
p1055
aVtagen
p1056
aa(lp1057
Vlecture gerer
p1058
aVintel upnp
p1059
aVintel
p1060
aVuniversal plugnplay
p1061
aVvue liste
p1062
aVplugnplay intel
p1063
aVupnp
p1064
aVav
p1065
aVupnp av
p1066
aVdecouverte
p1067
aa(lp1068
Vurn upnp
p1069
aVorg serviceid
p1070
aVlocal urn
p1071
aVserviceid switchpower1
p1072
aVswitchpower1
p1073
ag127
aVplug
p1074
ag128
aVwall plug
p1075
aVwall
p1076
aa(lp1077
Vreconfigure
p1078
aVxorg conf
p1079
aVdpkg
p1080
aVxserver xorg
p1081
aVx11 xorg
p1082
aVconf entree
p1083
aVreconfigure xserver
p1084
aVetc x11
p1085
aVxorg etc
p1086
aVxorg
p1087
aa(lp1088
g816
ag815
ag82
ag83
aVparties
p1089
ag93
aVcommunes
p1090
aVentretien
p1091
aVdepenses
p1092
aVparties communes
p1093
aa(lp1094
Vfree chapeau
p1095
aVorg
p1096
ag1023
aVhttp bugs
p1097
aVfreeplayer
p1098
aVorg task
p1099
aVbugs
p1100
aVbugs freeplayer
p1101
aVfreeplayer org
p1102
aVfree
p1103
aa(lp1104
Vfrancois hollande
p1105
aVpen
p1106
aVdesormais
p1107
aVfrancois bayrou
p1108
aVluc melenchon
p1109
aVmelenchon
p1110
aVsarkozy
p1111
aVfrancois
p1112
aVhollande
p1113
aVderreur
p1114
aa(lp1115
Vmecanique
p1116
aVaeromodelisme
p1117
aVdenvergure
p1118
aVaeronefs classiques
p1119
aVaerodynamique mecanique
p1120
ag322
ag323
aVaeronefs
p1121
aVfluides
p1122
aVaerodynamique
p1123
aa(lp1124
Vsdcard sdcard
p1125
aVgoogle billet
p1126
aVparametres affichage
p1127
aVringtones sdcard
p1128
aVringtones parametres
p1129
aVsonneries
p1130
aVsonnerie telephone
p1131
aVparametres
p1132
aVsdcard
p1133
aVringtones
p1134
aa(lp1135
g425
aVmolette
p1136
aVgeneral off
p1137
aVbouton general
p1138
aVbouton off
p1139
ag941
aVmultiprise greenwave
p1140
aVoff
p1141
aVmultiprise
p1142
aVgreenwave
p1143
aa(lp1144
Vtravailler latex
p1145
aVtravailler
p1146
aVubuntu texlive
p1147
aVgreek latex
p1148
aVucs latex
p1149
aVjabref pybliographer
p1150
aVfonts recommended
p1151
aVtexlive fonts
p1152
ag77
aVtexlive
p1153
aa(lp1154
g117
ag1009
aVsortie do
p1155
aVdo
p1156
aVsortie
p1157
aVdi
p1158
ag1012
ag408
aVsurveillance
p1159
aVsurveillance station
p1160
aa(lp1161
g1079
ag1078
aVsudo dpkg
p1162
ag1080
aVphigh
p1163
aVfichier xorg
p1164
aVreconfigure phigh
p1165
aVconf ubuntu
p1166
aVphigh xserver
p1167
ag1087
aa(lp1168
Vlite
p1169
aVvera lite
p1170
aVmios_xxxxxxxx
p1171
aVroot mios_xxxxxxxx
p1172
ag578
ag582
aVroot
p1173
aVip_vera
p1174
ag584
ag583
aa(lp1175
V2008 sujet
p1176
aV29 janvier
p1177
ag1020
ag502
aVconways game
p1178
aVconways
p1179
aVof life
p1180
aVgame
p1181
aVlife
p1182
aVgame of
p1183
aa(lp1184
Vobjet facultatif
p1185
ag27
ag33
ag51
ag582
aVlobjet
p1186
aVfacultatif
p1187
ag53
ag54
ag47
aa(lp1188
Vivh nom_complet
p1189
aVqlp nom_complet
p1190
aVqlp
p1191
aVdesinstaller
p1192
aVinstalles
p1193
aVrpm rpm
p1194
aVnom_complet
p1195
aVinstalles rpm
p1196
aVnom_court
p1197
aVrpm
p1198
aa(lp1199
Vdonner
p1200
aVdonner nom
p1201
aVtune2fs
p1202
aVdisque dev
p1203
aVmke2fs
p1204
ag935
aVdev
p1205
aVdev sda1
p1206
aVmon_disque
p1207
aVsda1
p1208
aa(lp1209
Vterme
p1210
aVmetres
p1211
aVva
p1212
aVatteindre
p1213
aVpeuvent atteindre
p1214
aVdepaisseur
p1215
aVfonte glaces
p1216
aVfonte
p1217
aVmetres depaisseur
p1218
aVglaces
p1219
aa(lp1220
Vmaintenant incubation
p1221
aVdannotation annotators
p1222
aVsite apache
p1223
aVinformation standards
p1224
aVcomposants components
p1225
aVapache organization
p1226
aVapache
p1227
ag877
aVcomposants
p1228
ag193
aa(lp1229
Vfiltrage
p1230
aVfiltrage appels
p1231
aVappels entrants
p1232
aVliste 351
p1233
aVtelephoniques filtrage
p1234
aVtelephoniques
p1235
aVappels
p1236
aVliste
p1237
aVnumero
p1238
aV351
p1239
aa(lp1240
g913
ag1227
aVnext
p1241
aVapache uima
p1242
ag258
aVupdates
p1243
aVsdk
p1244
aVemf
p1245
aVeclipse
p1246
ag193
aa(lp1247
Vmenu
p1248
aVxx
p1249
ag380
aVmenu demarrage
p1250
aVdemarrage windows
p1251
aVwindows windows
p1252
ag826
ag824
ag602
ag825
aa(lp1253
Vcm jusqua
p1254
aVu6
p1255
aVdouble encollage
p1256
aVdenture
p1257
aVcarreaux
p1258
aVencollage
p1259
aVcm
p1260
aVpeigne colle
p1261
aVcolle
p1262
aVpeigne
p1263
aa(lp1264
Vconsommation electrique
p1265
aVdonnees deuxieme
p1266
aVmodele base
p1267
aVlechelle
p1268
aVconsommation
p1269
aVbase
p1270
ag715
aVgraphiques
p1271
aVbase donnees
p1272
ag280
aa(lp1273
V635 freebox
p1274
aVquelques semaines
p1275
aVsemaines ftp
p1276
aVfreeboxhd free
p1277
aVfree dlink
p1278
aVfreebox freeboxhd
p1279
aVdepuis quelques
p1280
aVftp vers
p1281
aVvers freeboxhd
p1282
aVfreeboxhd
p1283
aa(lp1284
Vtheoriquement rhythmbox
p1285
aVupnp rhythmbox
p1286
aVlouie synaptic
p1287
aVubuntu gutsy
p1288
aVgutsy
p1289
aVpython
p1290
aVgibbon
p1291
aVgutsy gibbon
p1292
ag218
aVrhythmbox
p1293
aa(lp1294
Vonce
p1295
ag582
aVpolling poll
p1296
aVevery
p1297
aVat
p1298
ag619
aVnode
p1299
aVseconds
p1300
aVpoll
p1301
aVpolling
p1302
aa(lp1303
Vfoiled
p1304
aVcroise
p1305
aVblindage
p1306
aVtwisted
p1307
aVtwisted pair
p1308
aVpair
p1309
ag906
aVcablage
p1310
aVcat6
p1311
aVcable
p1312
aa(lp1313
Vrecursif
p1314
aVfind repertoire
p1315
aV0ix
p1316
aVxargs 0ix
p1317
aVprint0 xargs
p1318
aVprint0
p1319
aVxargs
p1320
aV0ix chmod
p1321
aVchangement recursif
p1322
aVchmod
p1323
aa(lp1324
g575
ag323
aVdannotation
p1325
aVannotator
p1326
ag193
aVcomposant dannotation
p1327
ag572
ag188
ag189
ag187
aa(lp1328
V0v 3v
p1329
aVtransfert
p1330
aVanalogiques
p1331
aVtemperature
p1332
aVsht
p1333
aVx3
p1334
aVsht x3
p1335
aVtension
p1336
aV3v
p1337
ag450
aa(lp1338
Vdisabled
p1339
aVserver disabled
p1340
aVvouliez
p1341
aVimaginons vouliez
p1342
aVvouliez utiliser
p1343
aVsimplement serveur
p1344
aVdimpression home
p1345
aVlan dhcp
p1346
aVfreebox simplement
p1347
aVutiliser di
p1348
aa(lp1349
Vapprocher stick
p1350
aVpasser stick
p1351
aVbouton stick
p1352
aVstick led
p1353
aVstick mode
p1354
aVserialapi
p1355
aVlabs
p1356
ag619
aVcontroleur
p1357
ag984
aa(lp1358
Vparametrage mise
p1359
aVwatchdog ping
p1360
aVprocedure mise
p1361
ag759
ag758
ag760
ag856
aVping watchdog
p1362
aVwatchdog
p1363
aVipx800
p1364
aa(lp1365
Vappliquez
p1366
aVappliquez patch
p1367
aVfirmware 0462
p1368
aVconfiguration web
p1369
aVzip
p1370
aVzip decompressez
p1371
aVsuperieur telechargez
p1372
aVobtenir fichier
p1373
aVdecompressez obtenir
p1374
aVpatch
p1375
aa(lp1376
g1007
ag1012
ag1010
ag125
ag582
ag1169
ag1170
aVassert
p1377
aVcapturer
p1378
ag48
aa(lp1379
Vsysteme detection
p1380
aVfausses detections
p1381
aVplus detection
p1382
aVfausses
p1383
aVplus valeur
p1384
aVdetection sensible
p1385
ag1005
aVsensible
p1386
ag1012
ag1009
aa(lp1387
g322
ag113
ag429
ag323
aVplus
p1388
ag432
ag1362
ag1363
ag431
ag856
aa(lp1389
g999
ag1002
ag1169
ag1170
aV22 39
p1390
aV5238
p1391
aV39 32
p1392
aV32 5238
p1393
ag582
aVdomoticz
p1394
aa(lp1395
Vipx800_3
p1396
ag759
aVlipx800
p1397
aVmicrologiciel
p1398
aVlan
p1399
aVlan settings
p1400
aVsettings
p1401
aVhex
p1402
ag1364
aVtftp
p1403
aa(lp1404
Vdemarrage
p1405
ag590
ag1248
aVexecuter msconfig
p1406
aVcest simple
p1407
aVmsconfig
p1408
aVmsconfig demarrage
p1409
aVmenu demarrer
p1410
aVsimple menu
p1411
aVdemarrer executer
p1412
aa(lp1413
g1357
ag623
ag556
ag624
aVprotocole
p1414
ag139
aVhome center2
p1415
aVcenter2
p1416
ag619
ag582
aa(lp1417
Vraisons firefox
p1418
aVjapprecie enormement
p1419
aVjutilise intensivement
p1420
aVcest certainement
p1421
aVfirefox cest
p1422
aVdeux raisons
p1423
aVmenerve aussi
p1424
aVintensivement
p1425
aVmenerve
p1426
aVfirefox
p1427
aa(lp1428
Vmoteur recherche
p1429
aV3000
p1430
aVlimplementation
p1431
aVfichiers texte
p1432
aVdonnees programmation
p1433
ag278
ag279
aVtexte
p1434
ag502
aVrecherche
p1435
aa(lp1436
Vprecedent
p1437
aVgerer
p1438
aVlogement precedent
p1439
ag813
ag812
ag88
ag815
ag816
aVphotocopie
p1440
ag93
aa(lp1441
Vlinterface
p1442
ag1394
aVclients
p1443
aVdomogik
p1444
aVopenremote openremote
p1445
aVenocean
p1446
ag983
ag987
aVopenremote
p1447
ag428
aa(lp1448
Vuima unstructured
p1449
ag873
ag875
aVconcernant uima
p1450
aVmaintiens
p1451
aVmaintiens page
p1452
aVautonome concernant
p1453
aVarchitecture maintiens
p1454
aVpage autonome
p1455
ag193
aa(lp1456
Vauto noperm
p1457
aVfstab 192
p1458
aVdadministration synology
p1459
aVrw user
p1460
aVdata
p1461
aVajouter fichier
p1462
aVjosd
p1463
aVfichier
p1464
ag525
aVnoperm
p1465
aa(lp1466
Vprises everspring
p1467
aVprises
p1468
aVreset
p1469
ag582
aVreassocier
p1470
aVui7
p1471
aVwave fibaro
p1472
ag719
ag556
ag619
aa(lp1473
Vchaine motif
p1474
aVlocate nom_fichier
p1475
aVnom_fichier
p1476
aVnom_fichier remarque
p1477
aVprint locate
p1478
aVlister tous
p1479
aVmon_rep name
p1480
aVlocate
p1481
aVmotif
p1482
aVmon_rep
p1483
aa(lp1484
Viocharset utf8
p1485
aVcodepage 850
p1486
aVcodepage
p1487
aVusername xxx
p1488
aVutf8 codepage
p1489
aV0777
p1490
aVmedia
p1491
ag525
aVmedia synology
p1492
aVxxx
p1493
aa(lp1494
Vlcd
p1495
aV1680
p1496
aVlcd panel
p1497
aV1680 1050
p1498
aVecran large
p1499
aVpanel
p1500
aVpanel 1680
p1501
aV1050
p1502
aVecran
p1503
aVlarge
p1504
aa(lp1505
Vcompte
p1506
ag109
aVubuntu sudo
p1507
aVcreer compte
p1508
aVpasswd
p1509
aVsudo passwd
p1510
aVpasswd root
p1511
aVroot ubuntu
p1512
aVcompte root
p1513
ag1173
aa(lp1514
Vtextutils
p1515
aVsh
p1516
aVsecurite systeme
p1517
aVlynis check
p1518
aVmktemp
p1519
aVscan
p1520
aVsecurite
p1521
ag916
aVsh lynis
p1522
aVlynis
p1523
aa(lp1524
Vmodule prise
p1525
ag1070
ag1069
aVupnp org
p1526
ag786
aVbouton module
p1527
aVad142
p1528
ag127
ag128
ag425
aa(lp1529
Vcreation dun
p1530
aVuima creation
p1531
aVdun composant
p1532
aVanalysis_component casannotator_implbase
p1533
aVcasannotator_implbase
p1534
aVdannotation import
p1535
aVlannotateur tutoriel
p1536
aVcasannotator_implbase sommaire
p1537
aVpartie developper
p1538
ag193
aa(lp1539
Vremuneree
p1540
aVpouvoir dachat
p1541
aVfonctionnaires donc
p1542
aVfonctionnaires 10
p1543
aV10 ans
p1544
aVattendu crise
p1545
aV10
p1546
ag884
ag365
aVfonctionnaires
p1547
aa(lp1548
Vmore
p1549
aVthan
p1550
aVbackup cron
p1551
aVhas
p1552
aVvia smbfs
p1553
aVsmbfs
p1554
aVcifs
p1555
ag896
aVrdiff
p1556
aVrdiff backup
p1557
aa(lp1558
Vjar file
p1559
aVant eclipse
p1560
aVant ant
p1561
aVexport
p1562
ag442
aVjar
p1563
ag1246
aVfile export
p1564
aVeclipse ant
p1565
aVant
p1566
aa(lp1567
g93
aVplafond
p1568
ag221
aVreduction dimpot
p1569
ag469
aVloi scellier
p1570
aVloi
p1571
aVdimpot
p1572
aVreduction
p1573
ag220
aa(lp1574
Vdir 635
p1575
aV255
p1576
aVfreebox upnp
p1577
aVrouteur
p1578
ag357
aVdlink
p1579
ag1066
ag1065
aVserveur upnp
p1580
ag1064
aa(lp1581
Vcom note
p1582
aVmaintenant publie
p1583
aVcours chez
p1584
aVnote 24
p1585
aV11 2009
p1586
aVjour cours
p1587
aVviens
p1588
aVviens mettre
p1589
aVduml cours
p1590
ag65
aa(lp1591
Vsamsung galaxy
p1592
ag758
ag759
ag760
aVapplications
p1593
aVcalendrier
p1594
aVgoogle agenda
p1595
ag519
aVagendas
p1596
aVgoogle
p1597
aa(lp1598
Vurn micasaverde
p1599
ag53
ag1096
ag1064
ag1071
ag1070
ag1526
ag1069
ag127
ag128
aa(lp1600
Vbug fixed
p1601
aVmethode scheduleworld
p1602
aVgmobilesync bug
p1603
aVjai installe
p1604
aVgmobilesync google
p1605
aVinstalle gmobilesync
p1606
aVversion gmobilesync
p1607
aVgoogle methode
p1608
aVgmobilesync gmobilesync
p1609
aVgmobilesync
p1610
aa(lp1611
Vuniversal sensor
p1612
aVapparaitre
p1613
aVsonde
p1614
aVdallas ds18b20
p1615
aVdallas
p1616
aVds18b20
p1617
aVmodule fgbs321
p1618
ag786
ag719
aVfgbs321
p1619
aa(lp1620
Vstructure enchainer
p1621
aVdannotation generer
p1622
aVcommun common
p1623
ag256
ag1325
aVstructure
p1624
aVgenerer
p1625
aVxmi
p1626
aVfichier xmi
p1627
ag193
aa(lp1628
Vpdf cat
p1629
aVdestination
p1630
aVsource
p1631
aVoutput
p1632
aVpdftk source
p1633
aVoutput destination
p1634
aVdestination pdf
p1635
aVpdftk
p1636
aVsource pdf
p1637
aVpdf
p1638
aa(lp1639
Vicr
p1640
aVrequetes
p1641
aVget
p1642
aVnvscgi
p1643
ag1012
ag1007
ag115
aVconfig
p1644
ag120
aVcgi
p1645
aa(lp1646
Vdune societe
p1647
ag419
ag416
ag417
ag418
aVenfin multiprise
p1648
ag413
aVenfin pouvoir
p1649
ag415
aVzwavejobhandler 372
p1650
aa(lp1651
g947
aVint
p1652
aVcolonne matrice
p1653
aVptr
p1654
aVint matrice
p1655
aVcolonne
p1656
aVligne colonne
p1657
aVmatrice nb_colonnes
p1658
aVnb_colonnes
p1659
aVmatrice
p1660
aa(lp1661
Vterratec
p1662
aVexe
p1663
aVnassetup
p1664
aVnassetup exe
p1665
ag525
ag982
aVds107e
p1666
aVsynology ds107e
p1667
aVnoxon
p1668
ag357
aa(lp1669
Vacroread cqview
p1670
aVdigikam easytag
p1671
aVpdfsan
p1672
aVpdfsan rdiff
p1673
aVfirefox gedit
p1674
aVcustomizer gwenview
p1675
aVcustomizer
p1676
aVeog firefox
p1677
aVinkscape
p1678
aVkdevelop
p1679
aa(lp1680
Vnoms fichier
p1681
aVnoms
p1682
aVfichiers jhead
p1683
ag495
aVmetadonnees exif
p1684
aVdate
p1685
ag55
aVexif
p1686
aVheure
p1687
aVdate heure
p1688
aa(lp1689
Vchoix explicite
p1690
aVnest
p1691
aVautomatique
p1692
aVmoins
p1693
aVactuellement
p1694
aVparticularite
p1695
aVinternet
p1696
aVparticularite nest
p1697
aVphotographies
p1698
ag573
aa(lp1699
V53 252
p1700
aVdhcp si
p1701
aVmobile defaut
p1702
aVdemarrerparametresconnexionswi
p1703
aVficartes
p1704
aVip fait
p1705
aVdefaut
p1706
ag317
ag1007
aVdns
p1707
aa(lp1708
Venter
p1709
ag619
aVrecepteur
p1710
ag582
aVconsigne
p1711
aVtemperature consigne
p1712
ag786
aVscs317
p1713
ag1332
aVthermostat
p1714
aa(lp1715
Vthat
p1716
aVdirectory uima_home
p1717
aVdocumentanalyzer
p1718
ag1246
ag1018
ag193
aVuima_home examples
p1719
ag1025
aVuima_home
p1720
aVexamples
p1721
aa(lp1722
Vgroup
p1723
ag1356
aVaeon labs
p1724
aVaeon
p1725
aVgroup mode
p1726
aVkey
p1727
aVkey fob
p1728
aVfob
p1729
aVscene
p1730
aVmode
p1731
aa(lp1732
Vtenant
p1733
aVlorsquil existe
p1734
aVlorsquil
p1735
aVainsi distance
p1736
aVdistance vitesse
p1737
aVexiste moins
p1738
aVmetres code
p1739
aVchaussee tenant
p1740
aVpietons doivent
p1741
aVtraverser chaussee
p1742
aa(lp1743
Vutf iso_8859
p1744
aV15 fic_source
p1745
aVdic_dest
p1746
aVdic_dest iconv
p1747
aVutrac universal
p1748
aVtext recognizer
p1749
aViso_8859
p1750
aVutrac
p1751
aVfic_source
p1752
aViconv
p1753
aa(lp1754
Vgvalue2
p1755
aVapp_path
p1756
aVwsapi_env
p1757
ag53
ag851
aVcontent_type
p1758
ag1044
aVpost
p1759
aVfwsapi
p1760
ag1046
aa(lp1761
Vdutilisation use
p1762
aVunified
p1763
ag65
ag608
aVobject
p1764
ag631
aVdiagram diagrammes
p1765
aVdiagram diagramme
p1766
ag632
aVdiagram
p1767
aa(lp1768
Vlagenda
p1769
aVlauncher v1
p1770
aVgoogle_ad_section_start google_ad_section_end
p1771
aVsynchronisation lagenda
p1772
aVgoogle_ad_section_start
p1773
aVlauncher total
p1774
aVgoogle_ad_section_end
p1775
aVv1 40
p1776
ag1597
aVlauncher
p1777
aa(lp1778
g1648
ag413
ag416
ag276
aV21
p1779
aVquestions
p1780
aVlivre lenergie
p1781
aVlenergie
p1782
aVlenergie 21
p1783
aV21 questions
p1784
aa(lp1785
g556
aV101
p1786
aVfgfs 101
p1787
aVfgfs
p1788
aVbouton tmp
p1789
aVsensor fgfs
p1790
aVfibaro flood
p1791
ag481
aVflood sensor
p1792
aVflood
p1793
aa(lp1794
Vtranscode cible
p1795
aVtranscode transcode
p1796
aVegalement solutionner
p1797
aVcas freeboxhd
p1798
aVsimplement lire
p1799
aVparvient tout
p1800
aVxvid
p1801
aVcible
p1802
aVtranscode
p1803
aVavi
p1804
aa(lp1805
Vfile container
p1806
aVlien utilise
p1807
ag935
ag1491
aVfichier partition
p1808
aVtruecrypt truecrypt
p1809
aVmonter
p1810
ag1464
ag380
aVtruecrypt
p1811
aa(lp1812
Vnoxon freebox
p1813
ag1158
aV704p
p1814
aVdi 704p
p1815
aVdlink di
p1816
aVfreebox dlink
p1817
aVfreebox freebox
p1818
ag1668
ag1579
ag431
aa(lp1819
Vadresse_serveur
p1820
aVlogin adresse_serveur
p1821
aVdropbear
p1822
aVauthorized_keys
p1823
aVpc
p1824
ag517
aVid_rsa
p1825
aVssh id_rsa
p1826
aVcle
p1827
ag583
aa(lp1828
g759
aVpaques
p1829
ag53
aVmath
p1830
aVlocal math
p1831
aV2016
p1832
aVthen
p1833
aVelseif
p1834
aVthen true
p1835
ag31
aa(lp1836
Vcontroller
p1837
aVcas
p1838
ag572
aVworkflow
p1839
aVprocessing engine
p1840
aVworkflow controller
p1841
ag189
aVcollection processing
p1842
aVprocessing
p1843
aVcollection
p1844
aa(lp1845
Vprism break
p1846
aVrevelations
p1847
aVutiliser
p1848
ag1159
aVprogramme
p1849
aVamericain
p1850
aVedward snowden
p1851
aVsnowden
p1852
aVedward
p1853
aVprism
p1854
aa(lp1855
g526
aVnaturel
p1856
aVlangage naturel
p1857
aVformels
p1858
aVlangages formels
p1859
ag271
aVlinguistique informatique
p1860
ag865
aVlangages
p1861
aVlinguistique
p1862
aa(lp1863
Vcomponent descriptor
p1864
aVcapabilities
p1865
aVonglet
p1866
aVpartie declarative
p1867
aVcas capabilities
p1868
aVdeclarative
p1869
aVtypes
p1870
aVdescripteur composant
p1871
ag187
aVdescripteur
p1872
aa(lp1873
Vactiver
p1874
ag983
ag432
ag525
aVups
p1875
ag429
aVsyslog server
p1876
aVnotification
p1877
aVserver
p1878
aVsyslog
p1879
aa(lp1880
Vstockage
p1881
aVgestionnaire stockage
p1882
aVraid
p1883
aVprincipal gestionnaire
p1884
aVvolume volume
p1885
ag1248
ag935
aVprincipal
p1886
aVmenu principal
p1887
ag301
aa(lp1888
Varticles
p1889
aVsuper cache
p1890
aVwp super
p1891
ag465
aVextensions
p1892
ag461
ag1043
aVadministration
p1893
aVeditor
p1894
aVhtml editor
p1895
aa(lp1896
g115
ag1010
ag120
aVdocumentation
p1897
aVips
p1898
aVlinterface gestion
p1899
aVdcs 6511
p1900
aV6511
p1901
ag1012
aVgestion
p1902
aa(lp1903
Vlexcellente classe
p1904
aVlexcellente
p1905
aVbeamer hevea
p1906
aVpublications cours
p1907
aVpublications
p1908
aVeps presentations
p1909
aVdirectement
p1910
aVjutilise
p1911
aVconseille
p1912
ag77
aa(lp1913
g941
ag485
ag1789
aVdouverture fgk
p1914
aVdouverture
p1915
ag1786
aVdetecteur douverture
p1916
aVfgk 101
p1917
aVfgk
p1918
ag719
aa(lp1919
Vxrand debian
p1920
aVaussi saisir
p1921
aVserveur pouvez
p1922
aVsuffit connecter
p1923
aVpouvez aussi
p1924
aVdebian ubuntu
p1925
ag231
ag429
aVredemarrer
p1926
aVredemarrer serveur
p1927
aa(lp1928
V05 15
p1929
aV14 12
p1930
aV12 06
p1931
ag584
aV01
p1932
aV01 05
p1933
aV05
p1934
ag1169
ag1170
ag582
aa(lp1935
Vacceder
p1936
ag1132
aVinitialize
p1937
aVmachaine
p1938
aVacceder parametres
p1939
aVgetcontext
p1940
aVstring monparametre
p1941
aVmonparametre
p1942
ag534
aVuimacontext
p1943
aa(lp1944
Vscene mode
p1945
ag556
ag1731
ag1356
ag719
ag1724
ag1725
aVproblemes
p1946
ag483
ag619
aa(lp1947
Vapplications mimeapps
p1948
aVediteur texte
p1949
aVshare applications
p1950
aV10 editeur
p1951
aVkile solution
p1952
aVproprietes kile
p1953
aVtexte kile
p1954
aVdediter fichier
p1955
ag1593
aVkile
p1956
aa(lp1957
Vlampadaire tv
p1958
aVscene lampadaire
p1959
aVbouton superieur
p1960
aVlog josdblog
p1961
aVjosdblog scene
p1962
aVtonumber
p1963
ag1730
aVlintensite lumineuse
p1964
aVlumineuse
p1965
aVlintensite
p1966
aa(lp1967
V2012
p1968
aVexemple
p1969
aVtous
p1970
ag43
aVdepasse
p1971
aVlegalite
p1972
aVprincipe degalite
p1973
aVdistinction
p1974
aVdegalite
p1975
aVdifference
p1976
aa(lp1977
Vsagit
p1978
ag1464
aVtaille
p1979
aVproduit
p1980
ag193
aVoctets
p1981
aVtabulaire
p1982
aVmo
p1983
aV468
p1984
aVcorpus
p1985
aa(lp1986
Vsevenmachines flash
p1987
aVthen nfs
p1988
aVsevenmachines
p1989
aVfree codecs
p1990
aVrepository
p1991
aVubuntu non
p1992
aVsourceslist org
p1993
ag218
ag1096
aVnumlockx
p1994
aa(lp1995
Ved
p1996
aVa1 ed
p1997
aV00 04
p1998
aVa3 a1
p1999
aVa3
p2000
aV04 a3
p2001
aVa1
p2002
aVentrees
p2003
aVparametrage
p2004
aVpush
p2005
aa(lp2006
Vbash_profile ouvrir
p2007
aVlutilisateur comme
p2008
aVcommande tant
p2009
aVdefaut fichier
p2010
aVedition profils
p2011
aVfichier bash_profile
p2012
aVlorsque option
p2013
ag231
aVconnexion
p2014
aVbash_profile
p2015
aa(lp2016
Vincandescence
p2017
aVfabrication
p2018
aVmanutention
p2019
aVcelui dune
p2020
aVdune lampe
p2021
aVlampe incandescence
p2022
aVcause
p2023
aVlampe
p2024
aVlampes
p2025
aVelles
p2026
aa(lp2027
g1985
ag371
aVtar
p2028
aVetc yatea
p2029
aVlingua
p2030
aVyatea rc
p2031
aVlingua yatea
p2032
aVusr local
p2033
aVcpan
p2034
aVyatea
p2035
aa(lp2036
Vsaillie legrand
p2037
aVlegrand
p2038
aVfrance
p2039
aVtintement
p2040
aVfil
p2041
ag902
ag381
aVfil ligne
p2042
ag947
ag425
aa(lp2043
Vpasse
p2044
ag648
aVmot passe
p2045
ag39
aVfr
p2046
aVparis13
p2047
aVluniversite
p2048
aVuniv paris13
p2049
aVparis13 fr
p2050
aVuniv
p2051
aa(lp2052
g807
aVappuyer bouton
p2053
ag623
ag619
aVsi vera
p2054
ag1169
ag1170
ag1011
aVvera vera
p2055
ag582
aa(lp2056
g575
ag187
ag189
ag188
ag190
ag192
ag193
ag195
ag194
ag196
aa(lp2057
g1963
ag1364
ag534
ag852
aVfunction return
p2058
ag1397
ag851
ag1377
ag53
ag33
aa(lp2059
Vconteneur
p2060
aVemballages
p2061
aVencombrants
p2062
aVramasse
p2063
aVverts
p2064
aVdechets verts
p2065
aVdechets menagers
p2066
aVmenagers
p2067
aVsigidurs
p2068
aVdechets
p2069
aa(lp2070
g53
ag1039
ag1040
aVtostring
p2071
aV8080 fsimple
p2072
ag33
ag1045
ag1046
aVfsimple
p2073
ag1044
aa(lp2074
Vredirections
p2075
aVredirections tubes
p2076
aVcours introduction
p2077
aVtubes
p2078
aVintroduction
p2079
aVfiltres
p2080
aVmonde
p2081
aVintroduction monde
p2082
aVmonde dunix
p2083
aVdunix
p2084
aa(lp2085
Vusb wi
p2086
ag109
aVedimax
p2087
aVwindows linux
p2088
aVmake
p2089
aVusb
p2090
aVfi
p2091
aVwi
p2092
aVwi fi
p2093
aVmbps
p2094
aa(lp2095
Vtaper xrandr
p2096
aVserveur suffit
p2097
aVconnecte serveur
p2098
aVdisponibles resolution
p2099
aVchaque ecran
p2100
aVxrandr xrandr
p2101
aVactive chaque
p2102
aVresolution active
p2103
aVinformations resolutions
p2104
aVxrandr
p2105
aa(lp2106
g525
ag533
ag1010
ag1007
ag1009
ag524
ag408
ag1160
ag1012
ag1159
aa(lp2107
Vjusqua version
p2108
aVeasybcd ajout
p2109
aVwindows pouvoir
p2110
aVubuntu lamorceur
p2111
aVwindows jusqua
p2112
aVbillet sujet
p2113
aVentree menu
p2114
aVlamorceur windows
p2115
ag1248
ag602
aa(lp2116
Vconcernant firefox
p2117
aVtoolbar
p2118
aVsearchbox sync
p2119
ag618
aVconcernant
p2120
ag1597
ag1427
aVcomplementaires
p2121
aVmodules complementaires
p2122
aVcomplementaires concernant
p2123
aa(lp2124
Vselectionner
p2125
aVautomatiquement
p2126
ag590
ag1132
aVdemarrer parametres
p2127
aVinternet automatiquement
p2128
aVwap
p2129
aVparametres connexions
p2130
ag1696
aVconnexions
p2131
aa(lp2132
Vsous
p2133
aVautre
p2134
ag1096
aVclavier agencement
p2135
aVopenoffice
p2136
aVpreferences clavier
p2137
aVagencement
p2138
aVopenoffice org
p2139
aVclavier
p2140
aVvirgule
p2141
aa(lp2142
Vsource tmp
p2143
aVsource media
p2144
aVrsync
p2145
aVhome toto
p2146
aVtoto source
p2147
aVtoto
p2148
ag485
aVsource destination
p2149
ag1630
ag1631
aa(lp2150
Vengines uima
p2151
aVxml eclipse
p2152
aVts cas
p2153
aVcomposer cas
p2154
aVtypes decrit
p2155
aVdecrit fichier
p2156
aVcas chaque
p2157
aVeclipse component
p2158
aVchaque composant
p2159
ag193
aa(lp2160
g889
ag983
aVwiki
p2161
aVwiki synozwave
p2162
aVweb synozwave
p2163
ag1442
ag584
ag528
aVcp210x
p2164
ag428
aa(lp2165
Vappareils type
p2166
ag1969
ag27
aVelectrique
p2167
aVmm
p2168
aVtype prise
p2169
aVprise electrique
p2170
aVbroche
p2171
aVterre
p2172
ag425
aa(lp2173
Vcommandes
p2174
aVclic trois
p2175
aVclic
p2176
aVdoigts touchpad
p2177
aVclickfinger3
p2178
aVtrois doigts
p2179
aVtouchpad
p2180
aVsynclient clickfinger3
p2181
aVdoigts
p2182
aVsynclient
p2183
aa(lp2184
Vetape
p2185
aVexports
p2186
aVserveur nfs
p2187
ag897
ag983
aVsynology data
p2188
ag525
aVvolume1 data
p2189
ag1461
ag998
aa.