(lp1
(lp2
Vslides
p3
aVsi
p4
aVtemps
p5
aVcouteux
p6
aVpouvez
p7
aVutilisez
p8
aVpreg_replace
p9
aVrapide
p10
aVplus rapide
p11
aVplus
p12
aa(lp13
Vis
p14
aVof this
p15
aVsymfony and
p16
aVone
p17
aVday
p18
aVand
p19
aVsymfony
p20
aVto
p21
aVof
p22
aVthe
p23
aa(lp24
Vreveur telle
p25
aVetre
p26
aVmonde
p27
aVtout
p28
aVnumeros
p29
aVinternet
p30
aVtelephone
p31
aVadresses
p32
aVacces
p33
aVpasse
p34
aa(lp35
Vberkeley
p36
aVberkeley vivement
p37
aVobsolete
p38
aVsons produits
p39
aVuniversite
p40
aVproduits
p41
aVreuters
p42
aVespionnage acoustique
p43
aVespionnage
p44
aVacoustique
p45
aa(lp46
Vversion
p47
aVtype
p48
aVniveau
p49
aVaiglx
p50
aVlies
p51
aVefforts
p52
aVfaut
p53
aVubuntu
p54
aVeffets
p55
aVedgy
p56
aa(lp57
Vafficher
p58
aVnet
p59
aVarchive format
p60
aVv0
p61
aVblogmarks v0
p62
aVlast blogmarks
p63
aVplugin last
p64
aVlast
p65
aVplugin
p66
aVblogmarks
p67
aa(lp68
Vpetit
p69
aVtar
p70
aVgrounation tar
p71
aVset
p72
aVinstaller
p73
ag53
aVpointeurs
p74
aVset pointeurs
p75
aVgcursor
p76
aVgrounation
p77
aa(lp78
Vsecondes via
p79
aVinitiative edit
p80
aVinitiative
p81
aVsecondes
p82
aVanciennes excellente
p83
aVprotocole internet
p84
aVdrole
p85
ag54
ag30
aVvia
p86
aa(lp87
Vecho
p88
aVformulaire
p89
aVcontact
p90
aVmessage
p91
aVclass
p92
aVthis
p93
aVarray
p94
aVform
p95
aVnew
p96
aVphp
p97
aa(lp98
Vfichiers
p99
aVprotozoo
p100
ag47
aVexemples
p101
aVmise jour
p102
aVmise
p103
aVflash player
p104
aVjour
p105
aVplayer
p106
aVflash
p107
aa(lp108
Vjoindre
p109
aVadore appliquer
p110
aVquelques
p111
aVcomme dit
p112
aVmerci eviter
p113
aVstandards web
p114
aVjoindre passant
p115
aVextinction voix
p116
aVaime
p117
aVconception
p118
aa(lp119
Vsous
p120
aV13 13
p121
aVpdf
p122
aV13 15
p123
aV15
p124
aVglooze
p125
aVniko
p126
aV13 14
p127
aV14
p128
aV13
p129
aa(lp130
Vwedding
p131
aVmourir
p132
aVfred
p133
aVscannee incarnez
p134
aVscannee
p135
aVmourir rire
p136
aVpersonnalise lien
p137
aVphotographie scannee
p138
aVlien application
p139
aVtrailer personnalise
p140
aa(lp141
Vpages
p142
aVbon
p143
aVsvn
p144
aVetc
p145
ag28
aVror
p146
aVsubversion
p147
ag21
aVtypo
p148
aVmysql
p149
aa(lp150
Vsysteme exploitation
p151
aVenjoins
p152
aVrelease
p153
aVmonde sortie
p154
ag73
aVinstaller utiliser
p155
aVaujourd hui
p156
aVaujourd
p157
aVsortie aujourd
p158
aVtester
p159
aa(lp160
Vtres interesse
p161
aVdeja
p162
aVregarder video
p163
aVdemain
p164
aVos mobile
p165
aVandroid
p166
aVparle
p167
aVenkin
p168
aVgoogle
p169
aVprojet
p170
aa(lp171
Vsensibles abstenir
p172
aVcirculation
p173
aVvictimes blondes
p174
aVvictimes
p175
aVimages
p176
aVimages insoutenables
p177
aVames
p178
aVames sensibles
p179
aVabstenir
p180
aVvia padawan
p181
aa(lp182
Vtoutes
p183
aVfaisait plus
p184
aVfaisait
p185
aVvia torrefaction
p186
aVsida faites
p187
aVsida efficace
p188
aVsigner nom
p189
aVnom
p190
aVsida
p191
aVca
p192
aa(lp193
Vcomposants
p194
aVget install
p195
ag28
ag107
aVfirefox
p196
ag120
aVinstall
p197
aVapt get
p198
aVget
p199
aVapt
p200
aa(lp201
Vtel
p202
aVcurieux
p203
aVpasserai
p204
ag86
aVpasserai exercice
p205
aVtente
p206
aVcomme
p207
aVjugez
p208
aVpietre efficacite
p209
aVjus
p210
aa(lp211
Vinformations
p212
aVentre
p213
aVentre autres
p214
aVmozilla
p215
aVtest
p216
ag196
aVpartie
p217
aVsecunia
p218
aVfaille
p219
aVautres
p220
aa(lp221
Vresultats
p222
aVbonne
p223
aVafin
p224
ag216
aVyahoo
p225
aVmoteur
p226
aVtres
p227
ag169
ag12
aVrecherche
p228
aa(lp229
Vvectoriel
p230
aVlogiciel retouche
p231
aVdonc
p232
aVfreehand
p233
ag118
aVoriente
p234
aVenvironnement developpement
p235
aVenvironnement
p236
aVretouche
p237
aVweb
p238
aa(lp239
Vfile
p240
aVin
p241
aVsome
p242
ag20
aVmate
p243
ag22
aVyou
p244
ag19
ag21
ag23
aa(lp245
Vlectures billet
p246
ag65
aVcommentaires
p247
aVpermet
p248
aVblog
p249
aVbillet
p250
aVnombre
p251
ag67
aVbillets
p252
aVaffiche
p253
aa(lp254
Vcategories linux
p255
aVtous
p256
aVcom
p257
aVcss
p258
ag54
aVhaha
p259
aVsite
p260
aVmoto
p261
aVlinux
p262
aVcategories
p263
aa(lp264
Vpage accueil
p265
aVpage
p266
aVtoujours
p267
aVsic
p268
aVsait
p269
ag90
aVfait
p270
aVemail
p271
ag169
aVcafe
p272
aa(lp273
Vplus mois
p274
aVbeau
p275
aVmois demi
p276
aVdonne recherche
p277
aVpeu plus
p278
aVsarkozy
p279
ag12
aVmorceau bravoure
p280
aVmorceau
p281
aVbravoure
p282
aa(lp283
Vexistent
p284
aVsource
p285
aVcontenus
p286
ag111
aVbien
p287
ag26
aVcontenu
p288
aVfaire
p289
ag249
aVlicence
p290
aa(lp291
Vapres
p292
ag267
aVtoujours aime
p293
aVmika
p294
aVcoups
p295
aVaussi
p296
aVpeu
p297
aVtelevision
p298
aVsix
p299
aValbum
p300
aa(lp301
Vedit peut
p302
aVmoins
p303
aVcouleur clientele
p304
aVjeune
p305
aVmoins annoncent
p306
ag26
aVedit
p307
aVjeune fille
p308
aVcouleur
p309
aVfille 1960
p310
aa(lp311
Vmembres forum
p312
aVoeil
p313
aVoeil sous
p314
aVpropose vitesse
p315
aVubuntu edgy
p316
aVlaser nb
p317
aVmembres
p318
aVplusieurs
p319
aVimprimante
p320
ag54
aa(lp321
Vaction
p322
aVsomewhere
p323
aVurl
p324
ag192
aVtry
p325
ag287
aVcatch
p326
aVexception
p327
ag93
aVredirect
p328
aa(lp329
g117
aVembeter parce
p330
ag192
aVembeter
p331
aVsais aime
p332
aVchaines
p333
aVaime chaines
p334
aVparce sais
p335
aVsais
p336
aVparce
p337
aa(lp338
Vicio
p339
aVrame sauf
p340
aVpoltergheist
p341
aVsauf chez
p342
aVdel
p343
aVsauf
p344
aVparait
p345
aVicio us
p346
aValors
p347
ag20
aa(lp348
Vvideo internet
p349
aVcomme ca
p350
aVquand
p351
ag86
aVmeme
p352
ag69
aVcomment
p353
ag207
ag192
ag307
aa(lp354
Vnouvel
p355
aVnouvel onglet
p356
aVonglet
p357
ag287
aVprecedente
p358
ag192
ag196
aVhistorique
p359
aVsuivante
p360
aVbouton
p361
aa(lp362
Vpetit nom
p363
aVnews info
p364
aVgadget fait
p365
aVgadget
p366
ag192
ag190
aVakihabara
p367
aVakihabara news
p368
aVinfo ca
p369
ag86
aa(lp370
g271
aVconsulter ressource
p371
aVentendu
p372
ag289
ag260
aVbien entendu
p373
ag287
aVconsulter
p374
ag352
aVcest
p375
aa(lp376
Veurope
p377
aVsemble
p378
aVimportance
p379
aVgagner
p380
aVatteint certains
p381
aVconnaitre succes
p382
ag196
aVraison
p383
aVcertains
p384
ag262
aa(lp385
Veviter methodes
p386
aVeviter lier
p387
aVeviter gens
p388
aVeviter fonction
p389
aVeviter etre
p390
aVeviter essayer
p391
aVeviter erreurs
p392
aVeviter desactiver
p393
aVzxvf eclipse
p394
aVexcellent
p395
aa(lp396
Varrive quelques
p397
aVcles
p398
aVsysteme
p399
aVcles usb
p400
aVretard
p401
aVgo peuvent
p402
aVgravure automatique
p403
aVgo
p404
aVlinux graver
p405
ag262
aa(lp406
Vvrai
p407
aVfast
p408
aVca drole
p409
aVrealise
p410
aVca donne
p411
aVfast clemmy
p412
aVdonne
p413
aVextremement
p414
ag192
ag287
aa(lp415
Vfaire titre
p416
aVoublie reouvrir
p417
aVdemande etc
p418
aVtout rapport
p419
aVcgi fastcgi
p420
aVtyphon
p421
ag28
aVoffre
p422
aVfastcgi
p423
aVcgi
p424
aa(lp425
Vpublic
p426
aVpublic function
p427
aVposts
p428
aVtrue
p429
ag19
ag92
aVid
p430
ag93
ag23
ag48
aa(lp431
Vorg
p432
ag170
ag144
aVfichier
p433
aVvar trac
p434
aVvar
p435
aVsudo
p436
aVmonzouliprojet
p437
ag147
aVtrac
p438
aa(lp439
Vbelle suivant
p440
aVtrop belle
p441
aVnouveau
p442
aVtrop
p443
aVessai
p444
aVbandit
p445
ag120
aVvoiture vendue
p446
aVer
p447
aVvendue
p448
aa(lp449
Vrgb
p450
aV20
p451
aVfont size
p452
aVstyle
p453
aVcontent
p454
aVstyle 3d
p455
aVsize
p456
aVsize 3d
p457
aVfont
p458
aV3d
p459
aa(lp460
Vcomments comment_auteur
p461
aVout
p462
aVauth
p463
aVagrave
p464
aVstrs
p465
aVstrong strong
p466
aVglobals comments
p467
aVglobals
p468
aVcomments
p469
aVstrong
p470
aa(lp471
Vliens
p472
aVnotamment videos
p473
aVliens projet
p474
aVcaptures
p475
aVcaptures videos
p476
aVpage officielle
p477
aVmet ci
p478
aVvideos
p479
ag111
ag170
aa(lp480
Vmal ca
p481
aVca peut
p482
aVmysql user
p483
ag149
aVpeut faire
p484
aVtable mysql
p485
ag292
aVperdre
p486
aVfaire perdre
p487
aVuser mal
p488
aa(lp489
Vauthor
p490
ag20
aVslug
p491
ag21
ag19
aVdoctrine
p492
ag93
ag23
aVpost
p493
ag97
aa(lp494
Vtout nu
p495
aVpaf
p496
ag351
aVcoup edit
p497
aVnu
p498
aVnu paf
p499
aVsite poil
p500
ag157
ag28
aVrhabille
p501
aa(lp502
Vgravatars dotclear2
p503
ag469
ag456
aVtpl
p504
aVdotclear2
p505
aVgravatars
p506
ag97
ag92
aVattr
p507
aVgravatar
p508
aa(lp509
Vchef safari
p510
aVmac
p511
aVdernier scotche
p512
aVmac os
p513
aVgerer css2
p514
aVrendu
p515
aVdavid hyatt
p516
ag216
aVnavigateur
p517
aVsafari
p518
aa(lp519
g143
aVplanet
p520
aVmerci
p521
aVanciens
p522
ag247
aVcom prendreuncafe
p523
aVfeeds feedburner
p524
aVprendreuncafe
p525
aVfeedburner
p526
aVflux
p527
aa(lp528
Vlycee
p529
aVlycee motif
p530
aVblog personnel
p531
aVpris
p532
aVlire
p533
aVlire billet
p534
aVsinon
p535
aVedit pris
p536
aVtenu sous
p537
aV2006
p538
aa(lp539
Vbetement peuple
p540
aVbetement
p541
aVattendre
p542
aVsurcroit
p543
aVfallait
p544
aVvia rostaweb
p545
aVgratuitement
p546
aVgratuitement betement
p547
aVpeuple
p548
ag86
aa(lp549
g23
ag97
ag14
aVdom
p550
ag169
ag19
ag21
ag86
ag107
aVtags
p551
aa(lp552
Vy5
p553
aV24
p554
ag86
aVy3
p555
aVjavascript
p556
aVx1
p557
ag5
aV200
p558
aVdi
p559
aVdis
p560
aa(lp561
V18
p562
aVneolao pond
p563
aVsuprend barbecue
p564
aVsuprend
p565
aVarrete
p566
ag19
aVgratuits
p567
aVplein
p568
aVgreasemonkey
p569
ag86
aa(lp570
Vbuffers cached
p571
aVused free
p572
aV522104
p573
aVfree
p574
aVroot
p575
aVswap
p576
aVserveur
p577
aVbuffers
p578
aVcompletement
p579
aVram
p580
aa(lp581
Vtourner lien
p582
aVhesitez
p583
ag289
aVrepondre
p584
aVrepondre faire
p585
aVclients potentiels
p586
aVsondage recueillir
p587
ag262
aVdell
p588
ag399
aa(lp589
Vchambre
p590
ag292
aVrendre
p591
ag167
aVtrain
p592
aVni
p593
ag351
aVsoir
p594
aVluxembourg
p595
aVetait
p596
aa(lp597
Vid value
p598
aVinput
p599
aVvalue
p600
aVname id
p601
ag48
aVcode source
p602
aVcode
p603
aVname
p604
ag285
ag430
aa(lp605
Vbeaucoup
p606
aVtomber
p607
aVexcellent moteur
p608
aVbout espere
p609
aVvia excellent
p610
aVtrop vendre
p611
aVbout
p612
aVcompte trop
p613
aVespere amazon
p614
aVvendre beaucoup
p615
aa(lp616
g386
ag387
ag388
ag389
ag390
ag391
ag392
aVeviter effectuer
p617
aVexacte
p618
ag394
aa(lp619
Vpolitique afin
p620
aVcote
p621
aVsous peu
p622
aVcote atlantique
p623
ag192
aVpolitique
p624
aVtexte
p625
aVcomte
p626
aVnotamment
p627
aVstatistiques
p628
aa(lp629
Valors renommage
p630
ag352
ag433
aVtxt
p631
aVtoto
p632
aVexecutable
p633
aVenvoyer
p634
aVgmail
p635
aVexe
p636
aVpire
p637
aa(lp638
Vpython2
p639
aVpython2 4suite
p640
ag111
aVapplication
p641
ag287
ag53
aVphotos
p642
aVflickruploadr
p643
aVcompte
p644
aVflickr
p645
aa(lp646
Vvisionner video
p647
aVlien
p648
aVvisionner
p649
aVmardi
p650
ag53
aVvia bistrot
p651
aVmardi super
p652
aVdirect
p653
aVlien direct
p654
aVtuesday philosophie
p655
aa(lp656
Vtrucs
p657
aVdepuis
p658
ag266
aVselection
p659
aVpermettant
p660
aVgmail comme
p661
aVastuces
p662
ag228
ag207
ag635
aa(lp663
Vva falloir
p664
aVphp4
p665
aVfalloir mettre
p666
aVphp4 plus
p667
aVdesormais officiel
p668
ag220
aVedit 13
p669
aVva
p670
aV1er
p671
aVnouvelle
p672
aa(lp673
g192
ag307
ag361
aVgestures
p674
aVfleche
p675
aVmouse
p676
aValt
p677
aVdroit
p678
aVgauche
p679
aVclic
p680
aa(lp681
Vpenche epaule
p682
ag192
aVlibrairies
p683
aVcodant
p684
aVregarder
p685
aVbon matin
p686
ag143
aVcodant bon
p687
aVfais
p688
aVquoi
p689
aa(lp690
Vsavonnette
p691
aVmotti
p692
aVgianni motti
p693
aVgianni
p694
aVitalien
p695
aVoui
p696
aVrealisee
p697
ag207
aVartiste
p698
ag192
aa(lp699
g436
aVgz
p700
aVtar gz
p701
aVsourceforge
p702
aVpy
p703
ag122
aVlogiciel
p704
ag70
aVpython
p705
aVkeyjnote
p706
aa(lp707
Vtrop honte
p708
aVforum ubuntu
p709
aVofficiel
p710
ag192
aVfr org
p711
ag442
aVrappelle rien
p712
aVmicrosoft
p713
aVubuntu fr
p714
aVavril 2005
p715
aa(lp716
Vtetris
p717
ag86
ag192
ag198
aVdont
p718
aVsudo apt
p719
ag199
aVjeu
p720
ag436
aVbastet
p721
aa(lp722
Vtemps bien
p723
aVquitter
p724
aVquitter fauteuil
p725
aVfrance fait
p726
aVpdf pres
p727
aVprecurseur niveau
p728
aVconnaissance quitter
p729
ag260
aVexemple
p730
aVfrance
p731
aa(lp732
g719
aVsudo gem
p733
ag199
ag195
ag198
aVgem
p734
ag200
aVruby
p735
ag197
ag436
aa(lp736
Vutiliser
p737
ag270
aVpart
p738
aVcompilo
p739
aVreason
p740
aVencore
p741
ag23
ag352
aVmacromedia
p742
aVmtasc
p743
aa(lp744
Vcontre
p745
aVhome
p746
aVutilite faire
p747
aVcontre alienation
p748
aVjorge
p749
aVjorge castro
p750
aVfaire backups
p751
aVcd
p752
aVregulierement
p753
aVhubackup
p754
aa(lp755
Vchez
p756
aVpersonne
p757
aVoppose
p758
ag287
aVsexe
p759
aVsexe oppose
p760
ag289
aVsept choses
p761
aVchoses
p762
aVsept
p763
aa(lp764
Vcertaines
p765
ag232
ag12
ag593
ag359
aVparties
p766
ag26
aVservice
p767
ag212
ag169
aa(lp768
Vplutot utiles
p769
aVchapeau
p770
aVboite
p771
aVutiles
p772
aVtrucs plutot
p773
ag657
aVutiles boite
p774
aVplutot
p775
aVboite chapeau
p776
aVfait trucs
p777
aa(lp778
Vfini rire
p779
aVrapportee
p780
aVrapportee soir
p781
aVrevient content
p782
aVrevient
p783
aVreste
p784
aVcoup fini
p785
aVreste coup
p786
aVcoup
p787
aVbloic
p788
aa(lp789
Vdesactivable
p790
aVpossible
p791
aVgestion
p792
aVliste
p793
ag442
aVresultat
p794
aVdefaut
p795
aVmozbot
p796
aVrecherches
p797
ag228
aa(lp798
Vcity
p799
aVmaps peu
p800
aVbleue
p801
aVbel outil
p802
aVarabesques
p803
aVarabesques dire
p804
aVvirtuelles avant
p805
aVmordor yoda
p806
aVcity 3000
p807
ag4
aa(lp808
Vposte
p809
aVcocasse reponse
p810
ag289
aVcocasse
p811
aVfaire part
p812
aVcandidature spontanee
p813
aVespere
p814
ag30
aVcandidature
p815
aVmail
p816
aa(lp817
g4
aVgrand
p818
aVjusqu
p819
aVfrance tous
p820
aVcoute grand
p821
aVreflechir
p822
aVarret
p823
aVemission
p824
aVheure
p825
ag26
aa(lp826
Vcoherents
p827
aVgenre
p828
aVappliquer
p829
aVcodage
p830
aVstandards
p831
aVstandards codage
p832
ag737
ag287
aVpopol
p833
ag603
aa(lp834
Vnativement ubuntu
p835
aVordinateurs
p836
aVcomplet
p837
aVoctobre 2006
p838
aVsupport materiel
p839
aVoctobre
p840
aVordinateurs embarquant
p841
aVpreparent
p842
aVgrandes
p843
aVtiens
p844
aa(lp845
g107
aVdigital
p846
ag14
ag21
aVdemo
p847
aVrss
p848
ag577
aVfor
p849
ag97
ag551
aa(lp850
g831
aVgoogle your
p851
ag23
aVare
p852
aVis google
p853
aVare google
p854
ag19
ag14
ag169
aVyour
p855
aa(lp856
Vjava
p857
ag4
aVautres operations
p858
aVeffectuer
p859
aVoperations
p860
aVpropre
p861
ag352
ag220
aVexceptions
p862
aVconnexion
p863
aa(lp864
Vmeme preuve
p865
aVsympathiques choses
p866
aVdeveloppement
p867
ag672
aVplateforme
p868
aVnouvelle version
p869
aVligne
p870
aVsplitgames
p871
ag718
ag47
aa(lp872
Vlaquelle retrouve
p873
aVlors pause
p874
aVfournisseur
p875
aVenferme prisonnier
p876
aVparler jeux
p877
aVjeux
p878
aVmatin
p879
aVescape
p880
ag5
aVroom
p881
aa(lp882
Vplus 1000
p883
ag443
ag207
ag232
ag718
ag784
ag741
aVinformation
p884
aVblogs
p885
ag12
aa(lp886
Vbase
p887
ag30
ag660
aVlocal
p888
aVapplications
p889
ag238
aVgears
p890
aVdonnees
p891
ag12
ag169
aa(lp892
Vblague
p893
aVsomme
p894
aVtrains
p895
aVbloques gare
p896
aVbloques
p897
aVattention
p898
aVplait
p899
aVattention plait
p900
ag825
ag12
aa(lp901
Vearth
p902
aVzorgloob arrete
p903
aVzorgloob
p904
aVarrete plus
p905
ag566
ag262
aVfrancais
p906
aVgoogle earth
p907
aVearth francais
p908
ag169
aa(lp909
g192
aV48
p910
aVpubliez
p911
ag816
ag59
aVpropos
p912
aVdew
p913
aVnice
p914
ag270
ag307
aa(lp915
Vmange
p916
aVfois
p917
ag596
aVagneau
p918
aVete
p919
aVvie
p920
aVcalanques
p921
aVdeux
p922
aVheures
p923
ag270
aa(lp924
Vprochainement
p925
aVdoux
p926
aVutilise projet
p927
aVprochainement tres
p928
aVdoux nom
p929
ag20
aVblog si
p930
ag66
aVxavier
p931
ag227
aa(lp932
Vlinux basee
p933
ag270
aVbasee
p934
aVhas
p935
ag23
ag22
ag54
aVdistribution
p936
ag849
ag262
aa(lp937
Vrel icon
p938
aVrel
p939
aVhebergeur
p940
ag227
aVfavicon
p941
aVbug
p942
ag105
ag47
ag48
aVliferea
p943
aa(lp944
Vdon
p945
aVtime
p946
aVthat
p947
aVthere
p948
ag22
aVbut
p949
aVso
p950
ag19
ag21
ag23
aa(lp951
g58
aVtentant
p952
aVerreur avertissant
p953
aVavertissant
p954
aVerreur intervenue
p955
aVtentant afficher
p956
aVviolente
p957
aVmessage erreur
p958
ag91
aVerreur
p959
aa(lp960
Vcommencant
p961
aVfixe
p962
aVelles arrivent
p963
aVelles
p964
ag658
aVfixe freeboite
p965
aVdjango
p966
aVarrivent pourrir
p967
aV118
p968
aVpubs
p969
aa(lp970
g250
ag795
aVlecteur
p971
ag533
aVpaquets
p972
ag287
ag200
aVxfmedia
p973
aVmultimedia
p974
aVsupplementaires
p975
aa(lp976
Vencore rire
p977
aVdingue
p978
aVvraiment
p979
aVpleure encore
p980
aVvraiment dingue
p981
aVmec vraiment
p982
ag741
aVpleure
p983
aVrire
p984
aVrire mec
p985
aa(lp986
Vscripts greasemonkey
p987
aVdublin core
p988
aVdublin
p989
ag266
ag4
ag248
ag569
aVscripts
p990
ag635
aVextension
p991
aa(lp992
Vpartition xp
p993
aVxp
p994
aVpartition
p995
ag176
aVpirate
p996
aVgrands
p997
ag272
ag192
ag287
ag4
aa(lp998
V11h faire
p999
aV11h
p1000
ag289
aVvia kagou
p1001
aVavant 11h
p1002
aVavant
p1003
aVpeu pres
p1004
aVpres matin
p1005
aVkagou peu
p1006
ag86
aa(lp1007
g117
aVamelioree enfin
p1008
aVoblige etre
p1009
ag192
ag603
ag26
aVjava test
p1010
aVtest java
p1011
ag857
ag216
aa(lp1012
Vreponses
p1013
aVdit peut
p1014
aVdis oui
p1015
aVbetterave
p1016
aVpeut
p1017
ag696
aVdit
p1018
aVdis non
p1019
aVnon
p1020
ag560
aa(lp1021
Vmethode
p1022
aVauthentification
p1023
aVshell
p1024
ag442
aVpasse root
p1025
ag34
aVmot passe
p1026
aVmot
p1027
ag575
ag149
aa(lp1028
Vtelecom
p1029
aVconcurrents
p1030
ag574
ag731
ag29
aVca passe
p1031
aVfrance telecom
p1032
ag34
ag787
ag192
aa(lp1033
V44
p1034
aV18 44
p1035
aV46
p1036
ag215
aVnavigateurs
p1037
aV18 45
p1038
aV45
p1039
aVmt
p1040
ag126
ag562
aa(lp1041
Vsvn externals
p1042
aVmonprojet
p1043
ag147
aV02
p1044
ag126
aVtrunk
p1045
ag170
aVvendor
p1046
ag144
ag20
aa(lp1047
g617
ag391
aVpeur
p1048
aVsite peur
p1049
aVvia site
p1050
aVkwyxz
p1051
aVkwyxz via
p1052
ag260
aVvia kwyxz
p1053
ag86
aa(lp1054
g262
aVtags flash
p1055
ag244
aVcomic
p1056
ag241
ag19
ag107
ag21
ag23
ag551
aa(lp1057
Vfeu barrait
p1058
aVidee posseder
p1059
aVfeu faisant
p1060
aVdebut
p1061
aVborne
p1062
ag658
aVfaire detour
p1063
aVhabite
p1064
aVrentrer chez
p1065
aVfeu
p1066
aa(lp1067
Vvideo
p1068
aVdesign
p1069
aVffmpeg php
p1070
aVxhtml
p1071
ag849
ag19
ag551
ag258
ag97
ag556
aa(lp1072
g66
aVclient
p1073
ag147
aVsubclipse version
p1074
aVpuis
p1075
aVselectionnez
p1076
aVpdt
p1077
aVeclipse
p1078
ag47
aVsubclipse
p1079
aa(lp1080
Vframework
p1081
aVutilisation
p1082
ag28
ag5
ag867
ag1017
ag20
ag12
ag287
ag170
aa(lp1083
g227
ag647
ag1068
ag649
ag654
ag53
ag651
ag653
ag648
ag104
aa(lp1084
Vpetites
p1085
aVfaire peu
p1086
aVab
p1087
aVab etude
p1088
aVpose
p1089
aVtremie
p1090
aVechelle meunier
p1091
aVprofessionnalisme
p1092
ag289
ag26
aa(lp1093
Vdesormais atteler
p1094
aVdesormais
p1095
ag399
aVstartup sound
p1096
aVcartes
p1097
aVfois vie
p1098
aVtrouve idee
p1099
aVtout utilisateur
p1100
aVscott
p1101
aVbras air
p1102
aa(lp1103
g4
ag731
ag479
ag196
ag849
aVgoogle video
p1104
ag1068
ag569
ag169
aVscript
p1105
aa(lp1106
Vbac sable
p1107
aVco ecrit
p1108
aVco
p1109
aVtristan
p1110
aVarticle symfony
p1111
ag20
aVparution
p1112
aVparution blog
p1113
aVbac
p1114
aVsable
p1115
aa(lp1116
g422
aVhebergement typhon
p1117
aVpublic blog
p1118
aVmatin heberge
p1119
ag426
aVhebergement
p1120
aVheberge dedibox
p1121
aVgenerant charge
p1122
aVcharge
p1123
ag249
aa(lp1124
Vubuntu hoary
p1125
aVdeb
p1126
aVinstallation
p1127
aVmain
p1128
aVmain restricted
p1129
aVnvidia
p1130
aVhoary
p1131
aVrestricted
p1132
ag4
ag54
aa(lp1133
Vjour via
p1134
aVos
p1135
aVwindows
p1136
ag262
aVfr windows
p1137
aVwindows mac
p1138
ag513
aVthunderbird
p1139
ag86
aVfr
p1140
aa(lp1141
Vaccueil assez
p1142
aVaccueil
p1143
aVsympa bien
p1144
aVutilise
p1145
aVinstant imagine
p1146
aVrelativement moche
p1147
aVassez sympa
p1148
aVsympa
p1149
aVassez
p1150
ag266
aa(lp1151
Vfilters
p1152
aVatom
p1153
ag22
aVdocumentation
p1154
ag19
ag848
ag107
ag86
ag551
ag23
aa(lp1155
Vfournit vrais
p1156
aVjo hiver
p1157
aVanime quand
p1158
aVpleurer
p1159
aVplus drole
p1160
ag267
aVfournit
p1161
aVpleurer jo
p1162
ag289
aVgif
p1163
aa(lp1164
Vtres forte
p1165
aVmillions utilisateurs
p1166
aV12
p1167
aVutilise quotidien
p1168
aVrassure
p1169
ag4
ag225
ag97
ag1081
ag20
aa(lp1170
g577
aVhost org
p1171
aVtoto host
p1172
ag432
aVhost
p1173
aVtiti
p1174
ag632
aVxx
p1175
aVpassphrase
p1176
aVssh
p1177
aa(lp1178
g689
aVedit kde
p1179
aVreddit passe
p1180
aVsous windows
p1181
ag28
ag120
ag54
aVpasser
p1182
ag207
ag307
aa(lp1183
Vjetable
p1184
aVjetable mail
p1185
ag816
ag991
aVgtranslate
p1186
ag12
ag271
aVextension permet
p1187
ag248
ag196
aa(lp1188
Vtoujours propos
p1189
aVclassiques quoi
p1190
aVclassiques
p1191
aVmillion fois
p1192
aVvitesse
p1193
aVnano
p1194
ag86
aVproduire
p1195
aVtransistors
p1196
ag917
aa(lp1197
Vwhich aims
p1198
ag18
aVguitar
p1199
ag21
ag19
aVlike
p1200
ag22
ag249
aVgood
p1201
ag23
aa(lp1202
g4
ag429
ag88
aVsql
p1203
aVif
p1204
aVcomment_site
p1205
aVnb
p1206
aVexclure
p1207
aVrc
p1208
aVcomment_auteur
p1209
aa(lp1210
g192
aVkno
p1211
aVplay
p1212
aVdansants
p1213
ag1020
ag34
ag378
ag143
ag287
aVjuste
p1214
aa(lp1215
Vpermet definir
p1216
aVoption
p1217
ag1128
ag120
ag107
ag248
ag730
ag216
ag743
aVswf
p1218
aa(lp1219
g391
ag392
ag617
ag387
aVeventuels directement
p1220
aVreally
p1221
aVerr
p1222
aVwell err
p1223
aVerr really
p1224
aVwell
p1225
aa(lp1226
Vmonte
p1227
aVsort aujourd
p1228
ag672
aVnature plus
p1229
ag12
ag517
ag260
ag47
ag919
aVlancement
p1230
aa(lp1231
Vetes
p1232
aVfaites
p1233
aVcoin etes
p1234
aVetes jaloux
p1235
aVcoin
p1236
aVbistro
p1237
aVbistro coin
p1238
ag86
aVjaloux
p1239
aVjaloux faites
p1240
aa(lp1241
Vbon quand
p1242
aVlaissez tomber
p1243
aVnez vent
p1244
aVtombe
p1245
ag28
ag351
aVquand meme
p1246
ag192
ag261
ag352
aa(lp1247
Vfaite jy
p1248
aVtoujours aller
p1249
aVfaite
p1250
aVdeveloppe
p1251
ag249
aVjai
p1252
ag347
aVinfos
p1253
ag12
ag375
aa(lp1254
Vmigrer
p1255
aVfacons
p1256
ag637
ag351
aVviens
p1257
aVtoutes facons
p1258
ag183
aVguillemets
p1259
ag577
ag192
aa(lp1260
Vdevenait mandriva
p1261
aVsociete
p1262
aVsociete bresilienne
p1263
aVvoila bon
p1264
aVorigine
p1265
aVorigine distribution
p1266
aVbresilienne
p1267
aVvient annoncer
p1268
aVvoila voila
p1269
aVvoila
p1270
aa(lp1271
g111
aVtoujours moins
p1272
aVtoujours plus
p1273
aVquelques jours
p1274
ag709
ag12
aVforum
p1275
aVscrupules
p1276
ag54
ag267
aa(lp1277
Vevoques
p1278
aVkagou distribution
p1279
ag1001
aVdistribution utilisez
p1280
ag538
ag8
aVutilisez 2006
p1281
ag936
ag86
aVkagou
p1282
aa(lp1283
Vpagerank
p1284
aVsession
p1285
ag253
aVarrivee
p1286
ag267
ag635
ag196
aVnavigation
p1287
ag292
aVbookmarks
p1288
aa(lp1289
g4
aVplugins
p1290
ag192
ag143
aVpropel
p1291
ag20
aVplugin permet
p1292
ag120
ag66
ag248
aa(lp1293
g34
aVcontrol module
p1294
aVcontrol
p1295
aVfor webmin
p1296
aVwebmin webmin
p1297
aVmodule
p1298
aVmodule for
p1299
ag849
ag575
aVwebmin
p1300
aa(lp1301
Vsysteme inedit
p1302
aVred hat
p1303
aVexploitation
p1304
aVexploitation libre
p1305
aVresiste envie
p1306
ag887
aVdemunis
p1307
aVportable
p1308
ag12
ag399
aa(lp1309
Vpareil
p1310
ag1082
ag922
aVsimplement
p1311
aVespaces
p1312
aVcaracteres
p1313
ag12
ag1027
ag1026
ag34
aa(lp1314
g270
aVluk manque
p1315
aVsamva
p1316
aVbest of
p1317
aVli
p1318
aVpseudo
p1319
ag22
aVul
p1320
aVazharh
p1321
aVluk
p1322
aa(lp1323
g442
aVquatre
p1324
ag120
aVdesole
p1325
aVubuntu ressemble
p1326
ag936
aVnovell
p1327
aVcanonical
p1328
ag54
ag232
aa(lp1329
g287
aVlogo
p1330
aVcher
p1331
aVdroite
p1332
aVverite
p1333
aVailleurs
p1334
ag1270
aVrions
p1335
ag696
ag192
aa(lp1336
Vmarque
p1337
ag207
ag30
ag4
ag270
aVwi
p1338
aVfi
p1339
aVwi fi
p1340
aVdevient
p1341
aVasfi
p1342
aa(lp1343
Vof them
p1344
ag241
aVfry
p1345
ag22
aVtarget
p1346
aVthem
p1347
aVthe troopers
p1348
aVshe
p1349
aVtroopers
p1350
ag23
aa(lp1351
g257
aV04
p1352
ag1131
aVubuntu linux
p1353
ag1095
aVhoary 04
p1354
ag250
ag54
aVavril
p1355
ag262
aa(lp1356
Vorder has
p1357
aVorder number
p1358
ag935
aVwe
p1359
ag23
aVreceipt
p1360
ag86
aVhas been
p1361
ag244
aVorder
p1362
aa(lp1363
g258
aVdesign css
p1364
aVlibre
p1365
aVcategories geek
p1366
aVcategories blog
p1367
ag238
ag262
aVgeek
p1368
ag263
ag249
aa(lp1369
g1153
aVsecurite
p1370
aVcorrection
p1371
aVajout flux
p1372
aVprevisualisation xslt
p1373
aVenfin
p1374
aVsecurite gravissimes
p1375
ag984
ag28
ag196
aa(lp1376
Vrewriterule
p1377
aVjpg jpeg
p1378
ag1163
aVrewritecond http_referer
p1379
aVjpeg
p1380
aVmyspace com
p1381
aVjpg
p1382
aVnc
p1383
aVmyspace
p1384
ag257
aa(lp1385
Vv5 hd
p1386
aVhd
p1387
aVcommande
p1388
aVrenouvellement freebox
p1389
ag143
ag1374
aVbon ok
p1390
ag307
aVenfin via
p1391
aVfreebox
p1392
aa(lp1393
g303
ag21
aVpopulation
p1394
aVinfected
p1395
aVchat
p1396
ag19
aVparasite
p1397
ag241
ag12
ag23
aa(lp1398
Vaffichee framebuffer
p1399
aVhem
p1400
aVvoyez
p1401
aVhorloge lancement
p1402
aVhorloge
p1403
ag143
aVbon accord
p1404
aVvoyez bon
p1405
aVhem continuons
p1406
aVvaleur
p1407
aa(lp1408
g1291
ag621
ag606
ag97
ag492
ag270
ag20
ag12
ag1081
ag378
aa(lp1409
Vbien trouve
p1410
aVpeux
p1411
aVpeux dire
p1412
aVbonne journee
p1413
aVchaud
p1414
aVchiotte
p1415
aVchiotte boulot
p1416
aVshoot em
p1417
aVefficace
p1418
aVxsoldier
p1419
aa(lp1420
Vpropose
p1421
aVxpi permet
p1422
aVlors
p1423
ag253
ag169
aVonglets
p1424
ag1167
ag266
ag248
aVxpi
p1425
aa(lp1426
Vrigolo
p1427
aVyou can
p1428
aVah sinon
p1429
aVrigolo destine
p1430
ag244
ag353
aVapplet table
p1431
aVresultat premiere
p1432
aVbistrot
p1433
aVbalises
p1434
aa(lp1435
Vapache
p1436
aVdomaine
p1437
ag700
ag735
ag701
aVopt redmine
p1438
ag70
aVopt
p1439
aVrails
p1440
aVredmine
p1441
aa(lp1442
g603
ag249
aVupgrade
p1443
ag887
aVindispensable
p1444
aVsyntaxique
p1445
aVdotclear
p1446
aVcolorisation syntaxique
p1447
ag66
aVcolorisation
p1448
aa(lp1449
Vcorrige mal
p1450
ag1135
ag513
aVrouge
p1451
ag511
ag1370
aVlinux firefox
p1452
aVfirefox version
p1453
ag196
ag47
aa(lp1454
Veviter utiliser
p1455
aVblague blondes
p1456
aVblondes
p1457
aVblondes tous
p1458
aVmeilleure blague
p1459
ag5
ag256
aVtous temps
p1460
aVmeilleure
p1461
ag893
aa(lp1462
g297
ag227
ag1218
aVdoit
p1463
aVgenerer
p1464
aVgraphiques
p1465
ag577
ag1331
ag26
aVoutils
p1466
aa(lp1467
g422
ag4
aVceux suivent
p1468
aVautour
p1469
aVoffre services
p1470
aVautour technologies
p1471
ag12
aVeventuellement
p1472
aVakei
p1473
ag238
aa(lp1474
Vci
p1475
ag990
ag192
aVtout capture
p1476
ag287
aVscripts detection
p1477
aVboulets
p1478
ag1135
aVdetection os
p1479
aVcapture
p1480
aa(lp1481
Vinternet reflexion
p1482
aVsociete repondu
p1483
ag86
aVmise vente
p1484
ag117
aVlire donc
p1485
ag103
aVsujet aime
p1486
ag922
aVassocies
p1487
aa(lp1488
Vvrac
p1489
aVan faire
p1490
aVavouee recenser
p1491
aVwiki tres
p1492
aVrappellant ainsi
p1493
aVrappellant
p1494
ag207
aVavouee
p1495
aVlibriste spreadlinux
p1496
aVpropagande libriste
p1497
aa(lp1498
Vjamais
p1499
aVcoup engrenages
p1500
ag158
aVmeme temps
p1501
aVete tres
p1502
aVfan kde
p1503
ag787
ag227
ag47
aVkde
p1504
aa(lp1505
g387
ag388
ag389
ag390
ag391
ag392
ag617
aVengadget
p1506
ag86
aVvia engadget
p1507
aa(lp1508
Vbody
p1509
ag1218
ag458
aVobjet flash
p1510
aVbody font
p1511
ag452
aVtaille
p1512
aVobjet
p1513
aVvaleurs
p1514
ag107
aa(lp1515
Vconsentement
p1516
aVmondiale nominative
p1517
aVmondiale
p1518
ag250
ag1418
aVefficace preuve
p1519
aVbillet essaye
p1520
aVca fait
p1521
aVverdict
p1522
ag228
aa(lp1523
g994
ag267
aVpaume
p1524
aVdisque
p1525
ag433
ag1136
aVacceder
p1526
ag995
ag658
ag891
aa(lp1527
g4
aVtout totalement
p1528
aVrendez foncez
p1529
aVgarou absolument
p1530
aVgarou
p1531
aVbijou animation
p1532
ag12
aVbijou
p1533
ag1421
aVwallace
p1534
aa(lp1535
Vgoute delice
p1536
aVboulot
p1537
aVdapper drake
p1538
aVteste gnome
p1539
aVgoute
p1540
aVapres avoir
p1541
ag120
aVonglets sous
p1542
ag1424
aVgnome
p1543
aa(lp1544
g5
aV161 array
p1545
aVsvg
p1546
aVdoc
p1547
ag96
aV161
p1548
aVlinkedstar
p1549
aVstar
p1550
aVgradient
p1551
ag94
aa(lp1552
Vcontre prochaine
p1553
aVagressif
p1554
aVquoi offrir
p1555
aVsurtout
p1556
aVagressif ultra
p1557
aVmalgre
p1558
aVsi surcout
p1559
aVmalgre prix
p1560
ag689
ag4
aa(lp1561
Ventame 5eme
p1562
aVgateau integralite
p1563
aVgateau
p1564
aVcroyez pouvez
p1565
ag97
aVruer
p1566
aVintegralite
p1567
aVentame
p1568
aVenorme tuerie
p1569
ag20
aa(lp1570
Vdomaine toujours
p1571
aVpermettent liens
p1572
aVpermettent
p1573
ag1387
aVchose etait
p1574
ag658
aVdistribution linux
p1575
ag936
ag262
aVmandriva
p1576
aa(lp1577
g1436
aVonline
p1578
ag249
aVwhois
p1579
aVsimple
p1580
aVtools
p1581
ag97
ag551
ag21
ag23
aa(lp1582
Vdifficile desormais
p1583
aVdifficile
p1584
ag1167
aVapero geek
p1585
aVapero
p1586
aVfaudra
p1587
aVforum php
p1588
aVprendre
p1589
aVnovembre
p1590
aVcelles
p1591
aa(lp1592
Vwhom share
p1593
aVwhom
p1594
aVinconnus
p1595
aVclive
p1596
aVattire
p1597
aVattracts
p1598
aVfacebook
p1599
ag266
aVmy
p1600
aVsocial
p1601
aa(lp1602
Voreilles
p1603
aVajax
p1604
aVpenser
p1605
aVparis
p1606
ag1211
aVcafe google
p1607
aVpear
p1608
ag670
ag272
ag169
aa(lp1609
Vrendre compte
p1610
aVutilite donc
p1611
aVutilite
p1612
aVfirefox maraboute
p1613
ag1270
aVinstalle hier
p1614
aVaffichait
p1615
aVvoila vais
p1616
ag347
ag196
aa(lp1617
g18
aVday event
p1618
ag21
aVsymfony day
p1619
ag19
aVthanks
p1620
aVthe symfony
p1621
aVbeen
p1622
ag20
ag23
aa(lp1623
g216
aVpandas bestioles
p1624
aVpandas
p1625
aVpsychologique symbolique
p1626
aV50 millions
p1627
aVmillions
p1628
aVffcounter
p1629
ag1218
ag27
aV50
p1630
aa(lp1631
Vxmlhttprequest
p1632
ag266
ag216
aVscript javascript
p1633
ag556
ag1513
aVadaptation
p1634
ag1105
ag159
ag228
aa(lp1635
Vcas
p1636
aVmicrosoft fait
p1637
ag287
ag352
ag207
aVcasses
p1638
aVcasses cerveau
p1639
aVca reste
p1640
aVmauvaise pub
p1641
ag192
aa(lp1642
Vgros super
p1643
aVdur dernier
p1644
ag223
aVetant
p1645
aVdur
p1646
aVgros
p1647
ag795
ag1525
aVps3
p1648
aVdisque dur
p1649
aa(lp1650
g307
aVwhich
p1651
ag244
aVthey
p1652
aVtrouble
p1653
aVare you
p1654
ag852
aVvi
p1655
aVuser
p1656
aVadmin
p1657
aa(lp1658
Vinstall_flash_player exe
p1659
aVinstall_flash_player
p1660
aVmozilla firefox
p1661
ag106
ag73
ag199
ag636
ag1136
aVwine
p1662
ag196
aa(lp1663
Vabusivement
p1664
aVubuntu tout
p1665
aVrigolote
p1666
ag28
ag54
aVevidemment
p1667
aVfait rigolote
p1668
ag287
aVhonteusement abusivement
p1669
ag270
aa(lp1670
Vjuste ca
p1671
aVlabrute idee
p1672
aVlabrute
p1673
aVinciter
p1674
ag670
aVcombattre
p1675
aVpersonnage
p1676
ag34
ag192
ag297
aa(lp1677
g942
aVblogmark_summary_html_nobr
p1678
aVblogmark_summary_html_nobr comportant
p1679
aVni br
p1680
aVbug repetant
p1681
aVnombre marks
p1682
ag67
aVmark
p1683
aVmarks
p1684
ag47
aa(lp1685
Virait bien
p1686
ag947
ag1359
ag279
aVsarkozy edition
p1687
aVoctobre ca
p1688
ag192
ag287
ag23
ag22
aa(lp1689
g54
ag511
aVubuntu mac
p1690
ag1068
aVconfond ubuntu
p1691
aVmusic
p1692
aVyahoo music
p1693
aVmyope confond
p1694
aVvideo service
p1695
aVconfond
p1696
aa(lp1697
g12
aVimporte
p1698
aVcretin
p1699
aVtotalement cretin
p1700
ag433
ag196
ag911
aVtotalement
p1701
ag267
ag30
aa(lp1702
g793
aVcomposant
p1703
aVfichier apps
p1704
ag792
ag469
ag247
ag433
aVback
p1705
ag353
ag97
aa(lp1706
Vstipule entre
p1707
ag227
ag1285
ag213
aVrejoignez
p1708
aVcitoyens
p1709
aVmanifestation
p1710
ag762
ag86
ag12
aa(lp1711
g319
ag97
ag809
ag844
aVexcuser
p1712
aVframework symfony
p1713
ag20
ag1081
aVlangage
p1714
ag4
aa(lp1715
g1446
ag21
aVpelletee pelletee
p1716
aVofficial
p1717
aVbackports
p1718
aVconversion
p1719
ag86
aVpelletee
p1720
ag107
ag551
aa(lp1721
Veuropeenne
p1722
ag1636
aVbrevetabilite
p1723
aVmajorite
p1724
aVeuropeen
p1725
ag307
aVprocedure
p1726
ag12
ag377
ag625
aa(lp1727
g1024
aVdirective
p1728
aVftpasswd
p1729
ag53
ag1017
ag433
aVpasswd
p1730
aVutilisateurs
p1731
ag145
aVproftpd
p1732
aa(lp1733
Vpotentiellement
p1734
aVplus ni
p1735
aVni moins
p1736
ag556
ag260
ag28
ag593
aVfil
p1737
aVfil rss
p1738
ag848
aa(lp1739
Vforme
p1740
ag247
ag66
ag12
aVplace
p1741
aVsubmit
p1742
ag287
aVdiv
p1743
aVpreview
p1744
ag97
aa(lp1745
g197
aVcom ubuntu
p1746
ag1128
ag1132
ag257
ag1126
ag199
ag200
ag1131
ag54
aa(lp1747
Vhabitants
p1748
aVsoutien
p1749
aVsympathie
p1750
aVllm
p1751
aVsympathie soutien
p1752
aVpartout
p1753
aVpartout toute
p1754
aVvia llm
p1755
aVhabitants londres
p1756
ag979
aa(lp1757
Vmenace poursuivre
p1758
aVcopie
p1759
aVautre genre
p1760
aVdiffamation
p1761
aVsociete starforce
p1762
aVgenre toutes
p1763
aVcopying
p1764
aVboingboing
p1765
aVanti
p1766
ag1262
aa(lp1767
Vcomparatif formats
p1768
aVmp3
p1769
ag149
aVformats
p1770
ag14
ag93
ag97
ag196
ag23
ag551
aa(lp1771
Vintegre
p1772
aVreader agregateur
p1773
aVreader
p1774
aVintegration gmail
p1775
aVblogger
p1776
aVblogger navigation
p1777
aVgmail utiliser
p1778
aVitems
p1779
ag169
ag635
aa(lp1780
g849
ag603
aVbrush
p1781
ag21
ag241
ag592
aVsyntax
p1782
ag22
aVby
p1783
ag23
aa(lp1784
Vemails
p1785
ag22
ag244
aVvalidator
p1786
aVchoices
p1787
ag96
ag93
ag21
ag23
ag94
aa(lp1788
Vkurl url
p1789
aVkhtml_part cpp
p1790
aVhtml
p1791
aVkhtmlpart
p1792
aVopenurl
p1793
aVkurl
p1794
aVpatch
p1795
aVacid2
p1796
ag216
ag324
aa(lp1797
Vprecharge
p1798
ag22
ag260
ag288
aVvont
p1799
ag472
ag142
aVweb accelerator
p1800
aVaccelerator
p1801
ag238
aa(lp1802
Venough
p1803
aVdidnt get
p1804
ag946
aVbe
p1805
ag199
aVdidnt
p1806
aVit
p1807
ag20
ag23
ag21
aa(lp1808
g917
aVhello
p1809
aVlibrairie
p1810
ag658
ag991
ag94
aVfb
p1811
aVconsole
p1812
ag97
aVfirephp
p1813
aa(lp1814
Vmars
p1815
aVrochereau
p1816
aVdenfert rochereau
p1817
aVdenfert
p1818
aV21 mars
p1819
aV21
p1820
aVmars 2006
p1821
aV2006 21h30
p1822
aVstation
p1823
ag650
aa(lp1824
Vthen
p1825
ag949
aVyou then
p1826
ag244
aVlogiciels libres
p1827
aVlibres
p1828
ag12
ag713
ag262
aVlogiciels
p1829
aa(lp1830
Vformitem
p1831
aVflexbuilder
p1832
aVlabel
p1833
aVxml
p1834
aVadobe
p1835
aVmxml
p1836
ag641
ag194
aVflex
p1837
aVmx
p1838
aa(lp1839
g665
ag215
aVxmms
p1840
ag197
ag195
ag436
ag199
ag198
ag200
ag719
aa(lp1841
Valvablog vote
p1842
ag86
aVvia alvablog
p1843
aVvideo delit
p1844
ag1068
aVsucage microphone
p1845
aVsucage
p1846
ag352
aVmicrophone
p1847
aVdelit
p1848
aa(lp1849
Vnon content
p1850
aVrachete
p1851
aVrachete coup
p1852
ag1020
ag86
aVcoups marketing
p1853
ag898
aVbouses pars
p1854
aValbert
p1855
ag787
aa(lp1856
Vresume parfaitement
p1857
aVparfaitement
p1858
aVperception web
p1859
aVzeldman
p1860
aVresume
p1861
aVjeffrey
p1862
aVjeffrey zeldman
p1863
aVparfaitement perception
p1864
aVperception
p1865
aVzeldman resume
p1866
aa(lp1867
g1123
aVgarantie
p1868
aVclavier
p1869
ag4
aVfonctionnait
p1870
ag1589
ag270
ag756
aVhp
p1871
ag262
aa(lp1872
Vpetite compilation
p1873
aVpaint
p1874
aVpaint mouais
p1875
aVpourri restait
p1876
aVpourri
p1877
aVfalloir
p1878
aVmidi satisfait
p1879
ag351
aVapres midi
p1880
aVukulele
p1881
aa(lp1882
Vconcerto
p1883
aVblog via
p1884
aVconcerto appartement
p1885
aVsix percussionistes
p1886
aVtarentino
p1887
ag745
ag521
aVspamclear
p1888
aVspam
p1889
ag86
aa(lp1890
Vpue
p1891
ag696
ag297
ag4
aVvoir
p1892
ag289
ag458
ag26
ag816
aVpu
p1893
aa(lp1894
Vphp5
p1895
aVmonprojet com
p1896
aVdev monprojet
p1897
aVdev
p1898
ag97
ag257
ag436
ag1608
ag1043
ag20
aa(lp1899
Vzack urlocker
p1900
aVdonation
p1901
aVdonation lance
p1902
ag232
aVmeme age
p1903
aVfils
p1904
aVcouteuse survivre
p1905
aVbesoin greffe
p1906
aVappel
p1907
ag352
aa(lp1908
g257
ag855
ag107
ag22
ag21
ag97
ag1136
ag19
ag23
ag551
aa(lp1909
g226
aVpresence
p1910
ag142
ag222
aVbelle
p1911
aVamazon
p1912
ag270
ag1604
ag207
aVa9
p1913
aa(lp1914
Vtutoweb fonteditor
p1915
ag227
aVtutoweb
p1916
aVcreer
p1917
aVtrouverez
p1918
aVderechef resultat
p1919
aVbitmap
p1920
aVcaractere
p1921
aVlivre
p1922
aVttf
p1923
aa(lp1924
Vgoogle news
p1925
ag265
aVvoici quoi
p1926
ag266
aVnews france
p1927
ag352
aVaccueil google
p1928
aVmoment
p1929
ag678
aVjudicieux choix
p1930
aa(lp1931
Vannuel
p1932
aVannuel net
p1933
aVarticle
p1934
aVwindows xp
p1935
ag971
ag672
ag26
ag994
ag4
ag1136
aa(lp1936
Vsolution ete
p1937
aVsortie firefox2
p1938
ag111
aVchoses bas
p1939
aVsous ubuntu
p1940
ag762
aVabout config
p1941
aVbas
p1942
ag1287
aVarriere historique
p1943
aa(lp1944
Vastuce
p1945
aVastuce expresse
p1946
aVtemps acces
p1947
aVtrouve
p1948
aVgenants
p1949
aVgenants lors
p1950
aVaffluences generalement
p1951
aVmoyen tres
p1952
ag303
ag5
aa(lp1953
Vtelechargement derniere
p1954
aVderniere
p1955
aVabilities
p1956
aVabilities and
p1957
ag1807
ag670
aVvery
p1958
aVjours suivant
p1959
ag19
ag1600
aa(lp1960
Vsymfony destination
p1961
aVsymfony developpeur
p1962
aVinscrire
p1963
aVlabs organise
p1964
aVconseil independants
p1965
ag69
ag1081
ag217
ag111
ag20
aa(lp1966
Vcoups panique
p1967
ag167
aVlaisse
p1968
ag579
aVvisiblement
p1969
aVpari
p1970
ag19
aVlaisse lecteur
p1971
ag250
aVjuger
p1972
aa(lp1973
Vlinstallation
p1974
aVmadame
p1975
aVceux lauraient
p1976
aVfou
p1977
aVfou ca
p1978
aVbillets techniques
p1979
aVdroit veuillez
p1980
aVtechniques desormais
p1981
aVcompris billets
p1982
ag375
aa(lp1983
Vdisponible
p1984
aVvia neolao
p1985
aVxkcd edit
p1986
aVxkcd
p1987
aVmaintenant
p1988
aVneolao via
p1989
ag307
aVmaintenant disponible
p1990
aVdisponible shirt
p1991
ag86
aa(lp1992
g12
aVmilitant format
p1993
aVmilitant
p1994
ag47
ag56
aVedgy eft
p1995
ag869
ag307
aVpeux empecher
p1996
aVtard peux
p1997
aa(lp1998
Vligne moment
p1999
aVmine rien
p2000
aVmine
p2001
aVappelle gameplay
p2002
aVappelle
p2003
ag658
aVinventer
p2004
aVmatiere
p2005
ag249
ag878
aa(lp2006
Vgroups inscrire
p2007
aVceux
p2008
aVvide
p2009
ag1713
aVsupport framework
p2010
ag1963
aVutilisation support
p2011
aVsupport
p2012
aVgoogle groups
p2013
ag20
aa(lp2014
Vbibliotheque musicale
p2015
ag224
aVgerer bibliotheque
p2016
aVsynchronisation
p2017
ag5
ag704
ag192
ag120
aVitunes
p2018
aVipod
p2019
aa(lp2020
Vmigration
p2021
ag1917
aVstring column
p2022
ag735
ag887
aVstring
p2023
aVcolumn
p2024
ag1440
ag891
aVcontacts
p2025
aa(lp2026
Vvideolan
p2027
aVhttp
p2028
aVversion svn
p2029
ag232
ag979
aVwifi
p2030
aVimmediatement
p2031
ag1392
ag47
aVvlc
p2032
aa(lp2033
V868
p2034
aV18pm 00
p2035
aV18pm
p2036
aVsm postfix
p2037
aVsm
p2038
aVsmtpd sm
p2039
aV27600
p2040
aV00
p2041
aVsmtpd
p2042
aVpostfix
p2043
aa(lp2044
Vsexy
p2045
aVgenere bots
p2046
ag378
aVesperons
p2047
aVcuistres
p2048
aVnotes
p2049
aVgoogle calendar
p2050
aVbeta
p2051
aVcalendar
p2052
ag169
aa(lp2053
Vadministration
p2054
ag767
aVdedibox apres
p2055
aVseulement
p2056
aVseulement 30
p2057
aVtemps reel
p2058
ag919
aVrelativement
p2059
aVexcessivement
p2060
ag1636
aa(lp2061
g238
aVdernieres
p2062
aVcompatibilite
p2063
aVverification
p2064
aVverification compatibilite
p2065
ag1127
ag2051
ag517
ag196
aVextensions
p2066
aa(lp2067
g248
ag680
ag1184
aVutile
p2068
ag196
ag271
aVadresse email
p2069
aVadresse
p2070
ag625
ag1425
aa(lp2071
Vfichier toto
p2072
aVswf toto
p2073
aVsh
p2074
aVprojet toto
p2075
ag170
ag743
ag433
aVtoto swf
p2076
ag1218
ag632
aa(lp2077
Vmariant
p2078
aVmariant live
p2079
ag787
aVcru faire
p2080
aVshow sceance
p2081
ag1270
aVlibe soiree
p2082
aVlibe
p2083
aVcru
p2084
aVtenancier pp
p2085
aa(lp2086
Vetre publie
p2087
aVsinon gare
p2088
aVdesormais tout
p2089
aVtout commence
p2090
ag1942
aVresponsable
p2091
aVcommence symfony
p2092
aVresponsable offres
p2093
aVailleurs teasing
p2094
aVjolies
p2095
aa(lp2096
g1127
aVfait nouvelle
p2097
ag196
ag1940
ag120
aVautomatique
p2098
aVvers
p2099
ag102
ag103
ag105
aa(lp2100
Vcure desintox
p2101
ag224
aVvolontaire
p2102
aVarroseurs enfin
p2103
ag352
aVjours acces
p2104
aVarroseurs
p2105
aVvolontaire limite
p2106
aVtrackbacks afin
p2107
aVeventuels
p2108
aa(lp2109
Veviter spam
p2110
aVclever age
p2111
aVclever
p2112
ag260
aVnouveau site
p2113
aVsite clever
p2114
ag442
aVage
p2115
aVbeau nouveau
p2116
ag275
aa(lp2117
Vfaire pardonner
p2118
aVchuck
p2119
aVpetit jeu
p2120
aVsaura
p2121
aVnorris facts
p2122
aVexistence
p2123
ag1017
ag143
aVpeut etre
p2124
ag26
aa(lp2125
Vpostage
p2126
ag287
ag648
aVderniers
p2127
aVautomatiquement
p2128
ag792
ag12
aVpublics
p2129
ag67
ag260
aa(lp2130
Vmacos pouvez
p2131
aVinstallent desktop
p2132
aVinstallent
p2133
aVdesktop windows
p2134
ag689
aVmain temps
p2135
aVcours
p2136
aVfait ville
p2137
ag1123
ag227
aa(lp2138
Vvacances
p2139
aVdodo deconnexion
p2140
aVdodo
p2141
aVvacances dodo
p2142
aVdeconnexion
p2143
aVdeconnexion commentaires
p2144
aVcommentaires fermes
p2145
aVsages
p2146
ag247
aVfermes
p2147
aa(lp2148
g107
ag252
ag741
ag290
aVflash requis
p2149
ag86
ag979
aVrequis
p2150
ag307
ag12
aa(lp2151
Vdocument question
p2152
aVbookmarklet
p2153
ag1423
aVsouvent
p2154
ag89
aVbarre
p2155
ag1270
ag442
ag1475
ag67
aa(lp2156
Vtouches
p2157
aVraccourcis clavier
p2158
aVfenetres
p2159
aVtouche
p2160
ag1869
aVpomme shift
p2161
aVraccourcis
p2162
aVshift
p2163
ag677
aVpomme
p2164
aa(lp2165
g128
aVsais si
p2166
ag1504
ag270
ag336
aVsous kde
p2167
ag1543
ag120
ag227
ag196
aa(lp2168
Vsuspense viens
p2169
aVsuspense
p2170
aVquelqu connaitrait
p2171
aVquelqu
p2172
aVlu bonnes
p2173
aVtransportable
p2174
aVconnaissiez ca
p2175
aVproduit tenu
p2176
ag4
ag192
aa(lp2177
Vsites
p2178
aVtout monde
p2179
ag917
ag5
ag289
ag828
ag1135
ag1604
aVmieux
p2180
ag107
aa(lp2181
Vetc rsyncd
p2182
ag436
ag145
ag433
aVrsyncd
p2183
aVmachinea
p2184
aVjeanpierre
p2185
aVmachine
p2186
aVrsync
p2187
aVedmond
p2188
aa(lp2189
Vchezmoi
p2190
ag1140
ag719
ag199
ag200
ag195
ag197
ag198
ag436
aVmenu
p2191
aa(lp2192
Vcroit recente
p2193
aVmozilla travers
p2194
ag1365
aVpossible si
p2195
aVcroit
p2196
aVadobe reversement
p2197
aVannonce ouverture
p2198
aVprojet tamarin
p2199
aVrecente annonce
p2200
ag1835
aa(lp2201
Vbien beau
p2202
ag829
aVand ads
p2203
aVveiller appliquer
p2204
aVveiller
p2205
aVcover
p2206
aVinvasive
p2207
ag947
aVads
p2208
aVads that
p2209
aa(lp2210
g66
aVdonut
p2211
ag556
ag21
ag86
aVapi
p2212
ag551
aVgoogle maps
p2213
ag169
aVmaps
p2214
aa(lp2215
Vcle
p2216
ag730
aVcle api
p2217
aVwebservice
p2218
aVlignes
p2219
ag2212
ag731
aVfloat
p2220
aVdata
p2221
ag169
aa(lp2222
Vwww
p2223
ag1203
aVsnipeet domaine
p2224
aVdirectory
p2225
aVdomaine tld
p2226
ag1437
aVall
p2227
ag20
ag149
aVsnipeet
p2228
aa(lp2229
g94
ag241
ag97
ag95
ag21
ag19
ag93
ag96
ag23
ag1656
aa(lp2230
g151
aVjour billet
p2231
aVdebian super
p2232
ag689
aVquiz exemple
p2233
aVquiz
p2234
aVdebian
p2235
aVexploitation etes
p2236
aVexemple extension
p2237
ag1232
aa(lp2238
Vaucune
p2239
aVedit reviendu
p2240
aVreviendu
p2241
aVtrackbacks prennent
p2242
aVpeu tout
p2243
aVlaissera aucune
p2244
aVlaissera
p2245
aVdire commentaires
p2246
aVtout ca
p2247
aVspammeurs troller
p2248
aa(lp2249
g232
aVquelque chose
p2250
aVquelque
p2251
aVbonnes
p2252
aVenterre
p2253
aVenterre directive
p2254
ag979
aVhui
p2255
ag156
ag157
aa(lp2256
g386
ag387
ag388
ag389
ag390
ag391
ag392
ag617
ag618
ag394
aa(lp2257
Vseul
p2258
ag606
ag28
aVcar
p2259
ag1081
aVmoins serieusement
p2260
ag1440
ag289
aVserieusement
p2261
ag303
aa(lp2262
Vimpress
p2263
aVfichu amazon
p2264
ag1257
aVmind
p2265
ag2028
aVsliderocket
p2266
aVtres tres
p2267
aVrecevoir
p2268
ag287
ag227
aa(lp2269
Vacces internet
p2270
ag30
ag574
aVfibre optique
p2271
aVfibre
p2272
ag81
aVdeuxieme
p2273
ag12
aVnumerique
p2274
ag767
aa(lp2275
Vapres version
p2276
aVcreative
p2277
aVcommons avant
p2278
aVcommons
p2279
aVcreative commons
p2280
aVpowerball curiosite
p2281
aVpowerball
p2282
aVpoint
p2283
aVvisiblement bien
p2284
aVcache
p2285
aa(lp2286
g792
ag459
aVsources
p2287
ag107
aVcodes
p2288
ag12
ag97
ag867
ag86
ag551
aa(lp2289
g521
ag592
aVmassif
p2290
aVbase dotclear
p2291
aVchose mysql
p2292
aVsemble salutaire
p2293
ag232
ag887
ag378
ag26
aa(lp2294
Vtout titre
p2295
aVsources depuis
p2296
aVapplication essentiellement
p2297
aVdediee projet
p2298
aVlibere
p2299
aVpublication code
p2300
aVinstallation symfonians
p2301
ag28
aVscreencast
p2302
ag603
aa(lp2303
Vdesactiver
p2304
aVesc_raw
p2305
aVarticle gettitle
p2306
aVecho article
p2307
ag88
ag1934
aVphp php
p2308
aVgettitle
p2309
aVphp echo
p2310
ag97
aa(lp2311
Vfaits
p2312
aVfiable performant
p2313
aVfiable
p2314
aVmessagerie
p2315
aVperformant cependant
p2316
ag1095
ag1785
ag1136
aVwindows sous
p2317
ag120
aa(lp2318
Vbugs
p2319
ag31
aVreedite version
p2320
aVreedite
p2321
aVclicktoscan
p2322
aVcomplete
p2323
aVcomme jorge
p2324
ag603
ag34
ag47
aa(lp2325
Vpage html
p2326
ag1791
ag1288
aVgoogle bookmarks
p2327
ag258
ag169
ag248
ag266
ag1422
ag1425
aa(lp2328
Vfun
p2329
ag260
ag1578
aVcms
p2330
ag1604
ag21
ag14
ag23
ag97
ag551
aa(lp2331
V1121786288
p2332
aV1121786295
p2333
aV131072
p2334
aV33188
p2335
aV16
p2336
aV2049
p2337
ag94
aVentry
p2338
aVpath
p2339
aV33
p2340
aa(lp2341
g257
ag2178
aVmarabouter
p2342
ag120
ag207
ag741
ag248
ag266
ag192
ag260
aa(lp2343
g66
ag287
ag1081
ag870
ag1988
ag248
aVentierement
p2344
ag919
ag792
ag12
aa(lp2345
Vcaptures ecran
p2346
aVattaque dns
p2347
aVpanne dns
p2348
aVpanne
p2349
aVtrop gros
p2350
ag898
aVattaque
p2351
ag475
ag384
aVdns
p2352
aa(lp2353
Vcatalogue
p2354
aVrelirai
p2355
ag5
ag47
ag1828
aVjour relirai
p2356
aVvais
p2357
ag399
ag73
ag105
aa(lp2358
g391
ag392
ag617
ag393
aVgnome plante
p2359
ag1543
ag351
aVquand gnome
p2360
aVplante plante
p2361
aVplante
p2362
aa(lp2363
g120
ag1127
aVtheme metacity
p2364
aVecran
p2365
aVmetacity
p2366
aVgdesklets
p2367
aVicones
p2368
aVgtk
p2369
ag1543
aVtheme
p2370
aa(lp2371
Vim prendreuncafe
p2372
aVtyphon nouvelle
p2373
ag443
aVorg decidemment
p2374
ag257
aVim
p2375
ag432
aVinstable
p2376
ag126
aVjabber
p2377
aa(lp2378
Ventrees jugez
p2379
aVpetite
p2380
aVpetite application
p2381
aVentrees
p2382
ag197
aVgnome raffinement
p2383
ag436
aVinstallsmeg sudo
p2384
aVsmeg
p2385
aVinstallsmeg
p2386
aa(lp2387
Vmicrosoft indique
p2388
aVpc
p2389
ag297
ag606
ag414
ag670
aVinpact
p2390
aVpc inpact
p2391
aVbill
p2392
ag1628
aa(lp2393
Veclipse_home
p2394
ag1917
ag262
aVbin
p2395
aVopt eclipse
p2396
aVusr
p2397
ag1439
aVrepertoire
p2398
ag433
ag1078
aa(lp2399
Vremouk
p2400
aVtelephone sonne
p2401
ag262
aVsonne
p2402
ag86
aVimage
p2403
aVseam
p2404
aVseam carving
p2405
aVcarving
p2406
ag192
aa(lp2407
Vimport pause
p2408
ag289
ag200
aVzone
p2409
aVecran moyen
p2410
aVimport
p2411
ag791
ag436
aVmoyen
p2412
aVimagemagick
p2413
aa(lp2414
Vmozilla europe
p2415
aVdispos
p2416
aVdispos mozilla
p2417
aVversion francisee
p2418
aVchevrel
p2419
aVchevrel version
p2420
aVpascal
p2421
aVpascal chevrel
p2422
aVnavigateur libre
p2423
aVmessagerie dispos
p2424
aa(lp2425
Vanglais correspond
p2426
aVpieces
p2427
aVoffre 1go
p2428
aVanglais
p2429
ag422
aVinvite ouvrir
p2430
aVentierement anglais
p2431
ag28
aVwebmail
p2432
ag169
aa(lp2433
Vrelisez introduction
p2434
aVrelisez
p2435
aVjour imperatif
p2436
aVcomportant gestion
p2437
aVperformances parsing
p2438
ag103
aVpurger
p2439
ag102
ag105
ag2285
aa(lp2440
g430
aVpost_id
p2441
ag433
ag493
ag891
aVsftest
p2442
ag1291
ag490
ag1705
ag20
aa(lp2443
Vcontent 48
p2444
ag2099
aVname geo
p2445
aVgeo
p2446
ag551
ag604
aVmeta
p2447
ag454
aVmeta name
p2448
ag260
aa(lp2449
Vdell inspiron
p2450
aVcharges
p2451
ag297
aVcarte
p2452
aVinspiron
p2453
aVcahier charges
p2454
aVcahier
p2455
ag588
ag4
aVprix
p2456
aa(lp2457
g207
ag1027
aVeffectue
p2458
aVmot ubuntu
p2459
ag169
aVubuntu google
p2460
aVcommandes
p2461
aVubuntu recherche
p2462
ag228
ag54
aa(lp2463
Vligne 74
p2464
ag870
aVpage entiere
p2465
aVlecteurs
p2466
ag1246
aVlecteurs gonfles
p2467
aVrajouter
p2468
aVsvp
p2469
ag266
ag97
aa(lp2470
Vprado
p2471
ag1203
aVcreole
p2472
aVtags php
p2473
ag849
ag551
aVphp framework
p2474
ag14
ag1081
ag97
aa(lp2475
g386
ag387
ag388
ag389
ag390
ag292
aVcholera
p2476
aVpeste
p2477
aVapres peste
p2478
aVpeste cholera
p2479
aa(lp2480
g27
aVmode maman
p2481
aVexige
p2482
aVsavent
p2483
aVmode
p2484
ag2124
ag621
aVcensure mode
p2485
ag1017
ag26
aa(lp2486
g66
ag2213
ag4
ag196
ag627
ag2452
ag2214
aVvue
p2487
ag169
aVgeourl
p2488
aa(lp2489
g433
ag430
aVcompany
p2490
aVcompanies
p2491
aVtd
p2492
ag849
aVend
p2493
ag604
ag2025
ag90
aa(lp2494
Vexecute
p2495
ag92
aVgerer
p2496
ag97
aVcourante
p2497
aVsymfonians
p2498
ag1204
aVhost_parts
p2499
aVcontext
p2500
aVsubdomain
p2501
aa(lp2502
g296
ag1173
ag2058
ag462
aVcompteur
p2503
ag97
ag1629
aVreel
p2504
ag5
aVfp
p2505
aa(lp2506
Vpotrace
p2507
ag1078
ag1898
ag21
aVextend
p2508
ag19
ag54
ag86
ag107
ag551
aa(lp2509
g1640
aVvient adopter
p2510
aVbesoin
p2511
aVperuvien
p2512
aVsystemes
p2513
ag1365
aVloi
p2514
aVstylo
p2515
ag1829
aValejandro
p2516
aa(lp2517
Vdessus declencher
p2518
aVpersonnelle
p2519
aVarbre
p2520
aVarbre dom
p2521
ag533
aVfoutu
p2522
ag917
ag287
ag550
ag227
aa(lp2523
Vplutot opengl
p2524
aVventes
p2525
aVventes consequent
p2526
ag2049
aVopen
p2527
ag1135
aVpomme serieusement
p2528
ag868
ag12
ag169
aa(lp2529
Vbanane
p2530
ag223
ag762
aVperformances
p2531
aVlibre utilisateurs
p2532
ag227
ag47
aVfilezilla
p2533
ag1731
ag704
aa(lp2534
g197
aVchkrootkit
p2535
aVprogramme
p2536
ag145
ag4
aVport
p2537
ag200
ag399
ag436
ag1177
aa(lp2538
Vca craint
p2539
ag594
aVgelabale dit
p2540
aVgelabale
p2541
aVsnif
p2542
aVnouvelles
p2543
ag2115
ag307
aVans
p2544
ag352
aa(lp2545
g1270
aVtitres presents
p2546
aVbig ideas
p2547
aVpotache
p2548
aVtres incompatible
p2549
aVbig
p2550
aVencore poils
p2551
ag227
ag192
aVdernier
p2552
aa(lp2553
g111
aVquestion
p2554
aVquil
p2555
aVdun
p2556
ag919
ag375
ag143
ag297
ag603
ag12
aa(lp2557
g1622
aVof the
p2558
aVsymfony by
p2559
ag22
ag21
aVits
p2560
ag307
ag20
ag1783
ag23
aa(lp2561
Vsympathique
p2562
aVgrace billet
p2563
aVlemmings
p2564
ag287
aVsympathique grace
p2565
ag250
aVflashback bien
p2566
aVhtml javascript
p2567
aVgrace
p2568
aVvieux
p2569
aa(lp2570
g216
aVmerite bien
p2571
aVmerite
p2572
aVtest acid
p2573
aVtant
p2574
ag223
ag577
aVunis ironie
p2575
ag5
ag169
aa(lp2576
g26
aVcul
p2577
ag352
ag287
ag4
ag28
ag12
aVrequetes
p2578
ag192
ag169
aa(lp2579
g388
ag389
ag390
ag391
ag392
ag617
ag393
aVeviter citer
p2580
ag394
aVpriceless
p2581
aa(lp2582
Vtristan permettant
p2583
ag287
ag352
ag207
ag1589
aVlocaliser carte
p2584
ag767
ag1110
ag2452
ag272
aa(lp2585
g1428
ag19
aVfoo
p2586
aVbar
p2587
ag244
aVphpsh
p2588
ag2023
ag21
ag23
ag97
aa(lp2589
g2537
ag28
ag4
aVutilises
p2590
aVmuhrc
p2591
ag192
ag126
ag577
aVirc
p2592
aVmuh
p2593
aa(lp2594
g232
ag5
aVlouer
p2595
aVdune
p2596
ag606
aVrecu
p2597
ag227
ag920
aVmontpellier
p2598
ag352
aa(lp2599
g136
aVquebecois tout
p2600
aVquebecois
p2601
aVtetes
p2602
aVtv site
p2603
aVpetit bonheur
p2604
aVbonheur tout
p2605
aVopus
p2606
ag1236
ag28
aa(lp2607
Vplus nouveau
p2608
ag238
ag2568
ag824
aVanalyse
p2609
ag298
ag176
ag12
aVarret images
p2610
ag823
aa(lp2611
g1963
aVseules
p2612
aVseules conditions
p2613
aVinscrire poster
p2614
aVillimitees
p2615
aVperl
p2616
ag819
ag735
ag1120
aVfausse
p2617
aa(lp2618
Vfractales
p2619
ag257
aVan
p2620
aVmenus
p2621
aVcomputer
p2622
ag849
aVquicktime
p2623
ag1078
ag1071
ag551
aa(lp2624
Vunit
p2625
ag19
ag2473
ag849
ag14
ag21
ag86
ag23
ag551
ag97
aa(lp2626
Vproductivity
p2627
aVproductivite reponse
p2628
aVgratuite utilisable
p2629
aVproductivite
p2630
aVrappelle
p2631
aVquestion sous
p2632
ag906
aVemploye
p2633
ag262
ag169
aa(lp2634
g386
ag387
ag388
ag389
ag390
ag391
ag392
ag617
ag618
ag394
aa(lp2635
Vcapture decran
p2636
aVajoutant
p2637
ag47
aVzip
p2638
ag66
ag521
aVflickrfeed
p2639
aVwidget
p2640
ag307
ag1252
aa(lp2641
g384
ag1365
ag1827
ag919
aVnationale
p2642
aVassemblee nationale
p2643
ag1829
aVdeputes
p2644
aVassemblee
p2645
ag1828
aa(lp2646
Vpresent
p2647
aVcouronne
p2648
aVcouronne succes
p2649
aVlisez message
p2650
aVlisez
p2651
aVtoute
p2652
aV160go second
p2653
aVautre
p2654
aVdedibox
p2655
ag4
aa(lp2656
g2380
aVhumour
p2657
aVtoujours mise
p2658
ag103
aVgolf
p2659
aVgolf tdi
p2660
aVderniere golf
p2661
aVechappe
p2662
aVvia alvasoft
p2663
aVvolkswagen toujours
p2664
aa(lp2665
g386
ag387
ag388
ag389
ag390
ag391
ag392
ag617
ag618
ag394
aa(lp2666
Vlinks
p2667
ag1807
aVdoesnt
p2668
ag849
ag2375
ag21
ag1600
ag22
ag645
ag23
aa(lp2669
g1543
ag700
aVlastrhythm
p2670
aVgajim status
p2671
ag70
aVstatus
p2672
ag66
aVapplet
p2673
aVgajim
p2674
aVrhythmbox
p2675
aa(lp2676
Vdo
p2677
aVpeople
p2678
aVtroll
p2679
ag852
aVuse
p2680
ag1807
ag1543
ag1504
ag21
aVidiots
p2681
aa(lp2682
Vmicrosoft comment
p2683
aVreddit ergonomie
p2684
aVreddit
p2685
ag713
aVvista
p2686
ag2487
aVraccourci windows
p2687
aVvue microsoft
p2688
aVsupprimer
p2689
ag86
aa(lp2690
g12
ag593
aVouvrage
p2691
ag1922
aVruby rails
p2692
ag421
ag5
ag227
ag735
ag1440
aa(lp2693
Vloaderwidth
p2694
ag216
aVclick
p2695
aVnew object
p2696
aVfalse
p2697
aVol
p2698
ag435
ag96
aVimageloader
p2699
ag1109
aa(lp2700
Vdecouvert nouvelle
p2701
aVnavigation fort
p2702
ag1287
aVtandis inverse
p2703
aVroutine quoi
p2704
aVroutine
p2705
aVnaviguer historique
p2706
aVfort
p2707
ag359
aVmolette
p2708
aa(lp2709
g849
ag241
ag556
ag14
ag22
ag23
ag258
ag19
ag21
ag263
aa(lp2710
Vlendemain cuite
p2711
ag287
ag169
aVcuite
p2712
ag1290
aVprendre cafe
p2713
aVenregistrer
p2714
aVcrois
p2715
ag272
ag1589
aa(lp2716
Vprendre nouveau
p2717
aVanciennes urls
p2718
ag247
ag527
ag289
aVanciennes
p2719
ag1589
aVurls
p2720
ag1123
aVok
p2721
aa(lp2722
Vplaystation livre
p2723
aVsony
p2724
aVface
p2725
ag917
aVbox
p2726
aVplaystation
p2727
aVsony playstation
p2728
aVnintendo
p2729
aVnintendo revolution
p2730
aVrevolution
p2731
aa(lp2732
Vvraiment reussi
p2733
aVameliore voici
p2734
aVbien gaule
p2735
ag287
aVvoici
p2736
aVbadger badger
p2737
aVdevelopper developper
p2738
aVbadger
p2739
ag54
aVdevelopper
p2740
aa(lp2741
Vsatisfaits
p2742
ag2112
ag2111
aVbien planning
p2743
aVnicos
p2744
aVagit mener
p2745
ag287
ag26
aVequipe
p2746
ag170
aa(lp2747
Vfaire sauvegarde
p2748
aVcss site
p2749
ag2319
aVsoft
p2750
ag51
ag91
ag4
ag54
ag47
aVopera
p2751
aa(lp2752
Vvoir toute
p2753
aVligne apres
p2754
aVsoir ca
p2755
ag594
aVva rester
p2756
ag1587
ag741
aVdavid voir
p2757
aVurgence si
p2758
aVtoute urgence
p2759
aa(lp2760
Vsincerement connais
p2761
ag1556
aVwildmary
p2762
ag270
aVvia wildmary
p2763
aVmal surtout
p2764
ag1521
aVconnais
p2765
aVconnais table
p2766
aVrepondu vraiment
p2767
aa(lp2768
Vbehaviour
p2769
aVhref
p2770
ag435
ag556
aVscrollto
p2771
aVfunction element
p2772
aVancre
p2773
aVrules
p2774
aVfunction
p2775
aVelement
p2776
aa(lp2777
Vrecuperez
p2778
aVsshfs
p2779
ag971
aVreseau
p2780
aVlecteur reseau
p2781
ag1177
ag296
aVmacfuse sshfs
p2782
aVmacfuse
p2783
aVmacfusion
p2784
aa(lp2785
g2028
aVperl libcrypt
p2786
aV06
p2787
aVtar bz2
p2788
aVcrypt
p2789
aVcrypt simple
p2790
ag1580
ag70
ag2616
aVcheckgmail
p2791
aa(lp2792
V450d
p2793
aVsigma 30mm
p2794
aVsigma
p2795
aV55
p2796
aV250mm
p2797
ag2456
aV55 250mm
p2798
ag642
aVobjectif
p2799
ag375
aa(lp2800
Vedit menage
p2801
ag107
ag104
ag215
aVdevrait
p2802
ag70
ag1290
ag106
ag66
aVmozilla plugins
p2803
aa(lp2804
g393
ag391
ag394
aVgrand play
p2805
aVsir
p2806
ag818
ag1212
aVplay sir
p2807
aVplus grand
p2808
ag12
aa(lp2809
Vradio
p2810
aVonline tools
p2811
aVnokia
p2812
aVlayout
p2813
ag2377
ag262
ag19
aVphoto
p2814
ag1578
ag551
aa(lp2815
g1895
ag870
aVpecl
p2816
ag2051
ag436
ag433
ag521
ag97
ag20
aVxdebug
p2817
aa(lp2818
g912
ag1829
ag307
aVveulent
p2819
aVdrm pourquoi
p2820
ag252
ag713
aVpourquoi
p2821
ag5
aVdrm
p2822
aa(lp2823
g272
aVdessiner pourquoi
p2824
ag54
aVdessiner comme
p2825
aVroute
p2826
ag642
ag2180
ag207
aVdessiner
p2827
ag169
aa(lp2828
Venjoy
p2829
aVfoxpose viens
p2830
aVkubuntu sudo
p2831
aVget update
p2832
ag198
ag436
ag200
ag199
aVkompose
p2833
ag719
aa(lp2834
Vwithname
p2835
ag600
aVsweater
p2836
aVproduct
p2837
ag97
ag604
ag96
ag94
ag23
ag21
aa(lp2838
g390
ag1136
aVwindows paf
p2839
ag1181
aVpassage sous
p2840
aVbref
p2841
ag496
aVpassage
p2842
aVbref passage
p2843
ag120
aa(lp2844
g120
aVpetite boule
p2845
ag1214
ag2380
aVdevant
p2846
aVboule
p2847
aVjuste devant
p2848
aVvoiture
p2849
aVboule poil
p2850
aVpoil
p2851
aa(lp2852
g551
aVutf8_encode
p2853
ag86
aVurlencode
p2854
aVtitle
p2855
aVglobals news
p2856
aVnews
p2857
ag324
ag468
aVsummary
p2858
aa(lp2859
Vmurray cumming
p2860
aVgnome version
p2861
aVtout filesystem
p2862
ag12
aVmurray
p2863
aVobtenue f9
p2864
ag287
ag1543
aVhierarchique
p2865
aVfonctionnalite
p2866
aa(lp2867
Vconfiguration
p2868
aVbase donnees
p2869
ag1370
ag891
ag887
ag232
ag21
aVdonnees cacti
p2870
ag149
aVcacti
p2871
aa(lp2872
Vdisponible via
p2873
ag47
aVmusique
p2874
aVtelechargement
p2875
aVgreffon
p2876
ag12
ag2354
ag86
ag2675
aVjamendo
p2877
aa(lp2878
Vrest style
p2879
ag453
aVwallpaper
p2880
aVrest
p2881
aVcolor
p2882
ag438
ag86
ag23
ag238
ag551
aa(lp2883
Vtemeraire ainsi
p2884
aVdriver proprietaire
p2885
ag795
aVdriver
p2886
aVcompiz
p2887
aVfaon
p2888
ag704
ag47
ag752
ag12
aa(lp2889
Vsometimes
p2890
ag192
ag21
ag28
ag1934
ag14
aVat
p2891
aVfrench
p2892
ag22
ag23
aa(lp2893
Vacceder mozilla
p2894
aVcomme capture
p2895
aVnumero version
p2896
ag324
ag1526
ag54
aVuseragent
p2897
ag959
ag47
ag196
aa(lp2898
g207
aVsonores
p2899
aVsonores podcasts
p2900
aVcompositions utilisees
p2901
aVfait bien
p2902
ag192
aVfonds sonores
p2903
aVfonds
p2904
aVplaisir
p2905
aVcertaines compositions
p2906
aa(lp2907
g352
aVenthousiasmant
p2908
aVenthousiasmant annonces
p2909
aVplus attachant
p2910
aVcest quand
p2911
ag289
aVblogoscene
p2912
aVblogosphere
p2913
aVsurdoue
p2914
ag12
aa(lp2915
Vconnaitre
p2916
aVconnaitre coups
p2917
ag111
aVlevera
p2918
ag2355
aVpenche hypothese
p2919
aVtroublant
p2920
ag1135
ag105
ag287
aa(lp2921
Vinondation
p2922
aVprovoque
p2923
aVprovoque inondation
p2924
aVtemplate
p2925
ag2857
ag266
ag1791
ag603
ag225
aVitem
p2926
aa(lp2927
g267
ag102
ag105
ag103
ag169
ag47
aVcalendriers
p2928
ag756
aVsorti
p2929
ag192
aa(lp2930
g2019
aVpossede
p2931
aVappreciations
p2932
aVappreciations autres
p2933
aVatom rss
p2934
aVrelativement similaire
p2935
ag260
ag318
ag738
aVscoopeo
p2936
aa(lp2937
g262
aVfrancophone
p2938
aVplanete
p2939
aVtitus
p2940
ag59
ag1737
ag917
ag520
ag12
ag54
aa(lp2941
g1604
ag2473
aVpresentation
p2942
ag120
ag21
ag149
ag97
ag86
ag855
ag551
aa(lp2943
Vversion beta
p2944
aVsatisfait browser
p2945
aVsatisfait
p2946
aVtres chouette
p2947
ag256
ag672
aVhack
p2948
ag196
ag2380
ag2051
aa(lp2949
Vheritage face
p2950
aVsatisfait performances
p2951
ag143
ag2946
ag2531
aVface recognition
p2952
aVmarche tous
p2953
ag256
aVrecognition bon
p2954
aVmarche
p2955
aa(lp2956
g192
ag979
ag287
ag228
aVmaurice
p2957
ag272
ag250
ag12
ag689
aVjean
p2958
aa(lp2959
Vreveillon
p2960
aVrares
p2961
aVbon reveillon
p2962
aVrares lisent
p2963
ag111
ag143
aVlisent quelques
p2964
aVlisent
p2965
aVquelques lignes
p2966
ag2219
aa(lp2967
g399
aVsources list
p2968
ag2287
aVdepots
p2969
aVgedit
p2970
ag2385
aVlist
p2971
aVediter
p2972
ag145
ag433
aa(lp2973
Vpreferee ubuntu
p2974
aVgimp retouche
p2975
ag818
aVploum
p2976
ag889
ag399
ag1365
aVjanvier
p2977
ag1922
ag54
aa(lp2978
g192
aVjavascript internaute
p2979
aVaider
p2980
aVfuture version
p2981
ag47
aVsolution
p2982
ag12
ag170
aVfuture
p2983
ag556
aa(lp2984
Vpreoccupante monopolise
p2985
ag714
aVtemps montrer
p2986
aVfrancophone utilisateurs
p2987
ag54
ag1731
aV2000
p2988
ag26
ag86
ag260
aa(lp2989
g2625
aVi18n strings
p2990
aVtrans
p2991
aVtrans unit
p2992
ag95
ag1128
aVstrings
p2993
ag97
ag1346
aVi18n
p2994
aa(lp2995
Vany
p2996
aVto open
p2997
aVwith
p2998
aVfeature
p2999
ag2527
ag22
ag240
ag241
ag23
ag21
aa(lp3000
Vbadger ete
p3001
aVofficielle
p3002
aVbreezy badger
p3003
ag2875
ag4
ag47
ag399
ag472
ag2739
aVbreezy
p3004
aa(lp3005
Vif you
p3006
ag1935
aVwill
p3007
ag994
ag197
ag1212
ag1807
ag1204
ag1136
ag244
aa(lp3008
g1068
ag648
ag647
ag649
ag654
aVvideo sinon
p3009
ag104
aVhelas
p3010
ag653
aVhelas faut
p3011
aa(lp3012
Vvente prix
p3013
aVploum gratifie
p3014
aVmondiale quoi
p3015
ag250
aVenvisager
p3016
aVsentira enfin
p3017
aVsentira
p3018
ag1374
ag54
aVstickers
p3019
aa(lp3020
g192
aVnexen
p3021
aVlicence cc
p3022
ag1783
aVcc
p3023
aVfin
p3024
aVrien
p3025
ag290
ag12
ag250
aa(lp3026
g21
ag848
aVsearch
p3027
aVmanager
p3028
ag97
ag1203
ag86
aVmapping
p3029
aVobject
p3030
ag551
aa(lp3031
Vtres prometteuse
p3032
ag1791
aVfonctionnalites
p3033
ag227
aVsqlite
p3034
ag887
ag47
ag2012
ag111
ag241
aa(lp3035
g2227
ag202
aVbrowsers
p3036
ag258
aVboing
p3037
ag215
ag551
ag1661
ag196
ag66
aa(lp3038
Vsachons
p3039
aVcapture ecran
p3040
aVsachons reconnaitre
p3041
ag1480
aVdemarrage demander
p3042
aVdemarrage
p3043
aVessayer
p3044
aVpropre aveu
p3045
aVspyware
p3046
ag713
aa(lp3047
Vubuntu seulement
p3048
aVni plus
p3049
aVgnu linux
p3050
aVgnu
p3051
ag704
ag73
ag593
aVie ie
p3052
ag262
aVie
p3053
aa(lp3054
g1608
ag670
ag2397
ag433
ag1127
ag436
ag1895
aVapache2
p3055
aVapc
p3056
ag97
aa(lp3057
g430
ag241
ag1504
ag196
aVgames
p3058
ag1834
ag1201
ag19
ag86
ag551
aa(lp3059
Vadoption deploiement
p3060
aVlargement depassee
p3061
aVrelaie chouette
p3062
aVphp6
p3063
aVtemps reconnaitre
p3064
aVannee
p3065
ag97
aVannoncee
p3066
aVprojets
p3067
ag665
aa(lp3068
g388
ag389
ag390
ag391
ag392
ag386
ag394
ag2544
aVtrente ans
p3069
aVtrente
p3070
aa(lp3071
Vliste technique
p3072
aVcombien
p3073
aVimplementation
p3074
aVdevoir attendre
p3075
aVdevoir
p3076
aVcelle proposee
p3077
aVnamespaces
p3078
aVcombien temps
p3079
aVdeveloppeurs
p3080
ag97
aa(lp3081
g556
aVprenom
p3082
aVonclick new
p3083
aVnew effect
p3084
aVeffect
p3085
aVonclick
p3086
aVmytext
p3087
ag1105
ag2770
ag96
aa(lp3088
Vtitres srt
p3089
aVultime
p3090
aVborgne
p3091
aVborgne passe
p3092
aVneolao
p3093
aVtres patients
p3094
aVneolao enflamme
p3095
aVtitres
p3096
aVpatients
p3097
aVbricoleurs
p3098
aa(lp3099
Vdistrowatch
p3100
aVcontrairement numero
p3101
aVnumero
p3102
aVlive
p3103
ag752
ag934
aVlive cd
p3104
ag54
ag3004
ag47
aa(lp3105
g225
ag287
ag1150
aVvia yahoo
p3106
aVassez bien
p3107
aVimagine
p3108
aVscene
p3109
aVimagine assez
p3110
aVappeller
p3111
aVparents
p3112
aa(lp3113
Veviter plantages
p3114
aVeviter saisie
p3115
ag2110
aVeviter telephone
p3116
aVeviter tenter
p3117
ag86
aVtemps changent
p3118
aVchangent
p3119
ag5
aVchangent via
p3120
aa(lp3121
Vmacports
p3122
aVmysql5
p3123
ag97
ag23
ag3055
aVopt local
p3124
ag1439
ag888
ag21
ag436
aa(lp3125
g1290
aVvu
p3126
aVjquery
p3127
aVrc2 safari
p3128
ag266
ag3096
ag111
ag1020
ag12
ag120
aa(lp3129
g430
ag429
ag241
ag21
ag48
ag604
ag97
aVfilter
p3130
ag23
aVbookmark
p3131
aa(lp3132
Vhalte capitale
p3133
aVthe auld
p3134
aVhalte
p3135
aVrendez ete
p3136
aVetre pis
p3137
ag1606
aVrendez
p3138
aVpub
p3139
ag1211
aValliance
p3140
aa(lp3141
g670
ag756
aVcourses
p3142
ag794
ag678
ag145
aVinfluent
p3143
aVcliquez
p3144
ag4
ag2744
aa(lp3145
Vcreation
p3146
aVforms
p3147
aV2d
p3148
ag86
ag1330
ag21
ag169
ag107
ag551
ag23
aa(lp3149
Vtraditionnelle
p3150
aVecrit collectivement
p3151
ag1359
aVdictionnaire faq
p3152
aVmusipedia
p3153
aVwiktionnaire
p3154
ag19
aVfaq
p3155
ag551
aVdictionnaire
p3156
aa(lp3157
g1061
aVhab
p3158
aVdonne sous
p3159
aVlire quelques
p3160
aVdoute remarque
p3161
ag111
ag247
aVimpression bon
p3162
aVfini
p3163
ag207
aa(lp3164
g2969
ag1140
ag1718
aVfree fr
p3165
ag1126
aVftp
p3166
aVplf
p3167
ag3004
ag54
ag574
aa(lp3168
Vembetante dont
p3169
ag627
aVversion firefox
p3170
aVfirefox sortie
p3171
aVsortie
p3172
aVapres moult
p3173
aVprintemps
p3174
aVubuntu sudo
p3175
ag47
ag196
aa(lp3176
Vlorsque demande
p3177
aVparticulierement
p3178
aVmeme jusqu
p3179
aVinviter
p3180
aVlorsque
p3181
aVlies douleurs
p3182
ag319
ag898
ag270
ag828
aa(lp3183
Vgestionnaire
p3184
aVrene
p3185
aVsuffit
p3186
ag660
ag891
ag192
ag870
aVsoiree
p3187
ag227
ag170
aa(lp3188
g591
ag520
aVira
p3189
aVira loin
p3190
aVintegre puc
p3191
aVnotes puc
p3192
aVplanet ubuntu
p3193
aVrendre afe
p3194
aVcom non
p3195
aVpuc
p3196
aa(lp3197
g260
ag120
ag303
ag192
aVperso
p3198
ag596
aVsite perso
p3199
ag337
ag2283
ag270
aa(lp3200
g1475
aVxorg
p3201
ag1130
aVxcompmgr
p3202
aVxorg conf
p3203
aVsection
p3204
aVconf
p3205
ag3043
aVombres
p3206
ag1217
aa(lp3207
g1232
aVetes agrarian
p3208
aVrace
p3209
ag1361
aVtimes of
p3210
aVresult
p3211
aVthis result
p3212
ag2678
aVagrarian
p3213
ag93
aa(lp3214
Vavoir drole
p3215
ag53
aVheures blague
p3216
ag923
ag351
ag1465
ag984
aVaimer
p3217
ag192
ag1427
aa(lp3218
g117
ag270
ag352
ag120
aVfeuilles
p3219
aVtapis
p3220
ag12
aVautomne hiver
p3221
aVautomne
p3222
aVhiver
p3223
aa(lp3224
g1136
aVbus
p3225
ag2191
ag97
ag196
ag991
ag86
ag1262
ag816
ag551
aa(lp3226
Vini
p3227
aVgeolitecity
p3228
aVgeolitecity dat
p3229
ag88
ag4
ag1895
aVdat
p3230
ag97
aVgeoip
p3231
ag2023
aa(lp3232
Vpreuve clairvoyance
p3233
aVpis
p3234
aVpreuve
p3235
aVpis star
p3236
aVservice reconnaissance
p3237
ag442
ag1270
aVhaikus dessiner
p3238
aVmourron
p3239
ag791
aa(lp3240
Vseveremement tout
p3241
aVgreve ligne
p3242
ag4
aVnoterez ligne
p3243
aVnotes ah
p3244
aVseveremement
p3245
aVsignaler
p3246
ag844
ag870
ag917
aa(lp3247
Vavant publier
p3248
aVaeiou lien
p3249
ag922
ag689
ag654
aVconclusion precedent
p3250
aVvia aeiou
p3251
aVpublier document
p3252
aVpublier
p3253
aVdocument
p3254
aa(lp3255
g1126
aVsudo dpkg
p3256
aVevince_0 0ubuntu1_i386
p3257
aVevince_0
p3258
aVevince
p3259
aVdpkg
p3260
aV0ubuntu1_i386
p3261
ag54
aV0ubuntu1_i386 deb
p3262
ag436
aa(lp3263
Vrenseigne
p3264
aVincite
p3265
aVrenseigne leger
p3266
ag252
aVadore
p3267
ag287
aVincite utiliser
p3268
aVflux xml
p3269
aVmode minimalisme
p3270
aVminimalisme
p3271
aa(lp3272
g28
ag920
ag621
ag232
aVmeilleur
p3273
aVsarladaise
p3274
ag287
ag270
ag596
ag117
aa(lp3275
Vaol
p3276
aVsupport netscape
p3277
aVvient
p3278
aV1er fevrier
p3279
ag671
ag1268
aVepoque rip
p3280
aVnetscape 1er
p3281
aVpremier
p3282
ag3024
aa(lp3283
g1537
ag3004
aVfonctionnalites offertes
p3284
ag4
aVavenir
p3285
aVoffertes
p3286
ag145
ag336
ag2765
ag227
aa(lp3287
g2241
ag279
aVan vient
p3288
ag2868
ag59
aVblogmarks net
p3289
ag260
ag28
ag67
ag12
aa(lp3290
Vphppgadmin
p3291
ag1027
ag34
aVpgadmin iii
p3292
aVpgadmin
p3293
aViii
p3294
ag1026
aVutilisateur
p3295
aVpostgresql
p3296
ag1127
aa(lp3297
Vrassurant
p3298
aVaccorde ca
p3299
aVaccorde
p3300
aVpeur google
p3301
ag1048
aVtravaillerait distribution
p3302
ag307
aVimaginez
p3303
ag169
ag192
aa(lp3304
g386
ag387
ag388
ag389
ag390
ag391
ag392
ag617
ag618
ag394
aa(lp3305
g303
aVcousin
p3306
aVyeux
p3307
ag270
ag47
ag756
ag352
ag1543
ag1504
ag12
aa(lp3308
Vpackage
p3309
aVexiste
p3310
aVexiste celle
p3311
aVversion existe
p3312
aVprobleme
p3313
aVligne commande
p3314
ag870
aVmartin ott
p3315
aVcommande sous
p3316
ag47
aa(lp3317
Vsolo
p3318
aVtomber moohtv
p3319
aVsolo batterie
p3320
aVtelediffuse si
p3321
aVsimulateur solo
p3322
ag1257
aVbovin telediffuse
p3323
aVbatterie bovin
p3324
aVviens tomber
p3325
ag4
aa(lp3326
g1346
ag3127
aVajax_link
p3327
ag324
aVmsg
p3328
ag737
ag20
ag2775
ag556
ag2770
aa(lp3329
g1892
ag257
aVouvrir
p3330
ag1556
ag192
ag2370
ag596
ag120
ag28
ag3053
aa(lp3331
Vich7
p3332
aVndiswrapper
p3333
aVrev 01
p3334
aV01
p3335
aVintel corporation
p3336
aVcontroller
p3337
aVcorporation
p3338
aVintel
p3339
aVrev
p3340
ag2041
aa(lp3341
g34
ag2814
aVeffet
p3342
ag351
ag26
ag12
ag169
ag192
ag797
ag272
aa(lp3343
Vmalgre peu
p3344
aVgros chat
p3345
ag1647
ag295
aVcoups cafards
p3346
aVdessinateur chat
p3347
aVdessinateur
p3348
aVchaque planche
p3349
ag1396
ag105
aa(lp3350
g888
aVlog
p3351
ag1127
ag1046
aVproject_root
p3352
aVracine
p3353
aVsf11test
p3354
ag170
aVsymfony11
p3355
ag20
aa(lp3356
g244
ag20
aVproject
p3357
aVcan
p3358
ag1805
aVhudson
p3359
ag22
ag19
ag21
ag23
aa(lp3360
Vremercier
p3361
ag143
ag207
ag443
aVlivraison
p3362
ag292
ag351
ag192
ag756
aVups
p3363
aa(lp3364
Vfrancaise ca
p3365
ag22
aVconsonance francophone
p3366
aVconsonance
p3367
aVapparemment tres
p3368
aVof celui
p3369
aVcelui
p3370
aVresultats plutot
p3371
ag227
aVfrancaise
p3372
aa(lp3373
Vconference
p3374
aVproposer sujet
p3375
aVsujet conference
p3376
aVsouhaitez
p3377
aVrapport
p3378
aVsi souhaitez
p3379
aVproposer
p3380
ag271
ag30
ag4
aa(lp3381
g2255
ag47
ag352
ag156
ag120
aVdesktop
p3382
aVlanguage
p3383
ag1140
ag207
ag232
aa(lp3384
g289
ag670
ag2124
ag1606
ag207
aViznogoud
p3385
aVbrule
p3386
ag192
ag26
ag169
aa(lp3387
g3114
ag3115
ag2110
aVvia 64k
p3388
aVenorme
p3389
aV64k enorme
p3390
ag232
aVenorme donc
p3391
ag86
aV64k
p3392
aa(lp3393
Vinstaller tar
p3394
ag1439
ag701
ag215
ag700
aVfirefox installer
p3395
ag70
aVdeerpark
p3396
ag73
ag196
aa(lp3397
Vlibraries and
p3398
aVlibraries
p3399
ag207
ag2531
aVapparement attribuable
p3400
aVprochaine
p3401
aVprochaine fois
p3402
aVapparement
p3403
aVframeworks
p3404
aVarchitectures
p3405
aa(lp3406
g192
ag2929
aVinutile
p3407
ag143
aVascii
p3408
ag2214
ag54
ag2655
ag307
aVmiam
p3409
aa(lp3410
Vclavier touches
p3411
ag689
ag143
aVsens
p3412
ag737
ag12
aVclavier alphabetique
p3413
aValphabetique
p3414
ag2157
ag1869
aa(lp3415
g1870
aVprevisualisation liste
p3416
ag658
aVmis
p3417
ag105
aVmis jour
p3418
ag66
ag266
ag67
aVajout
p3419
aa(lp3420
g3049
ag1735
ag303
aVfrantico fait
p3421
aVfrantico
p3422
ag2936
aVscoopeo enormissime
p3423
aVfait ni
p3424
aVenormissime
p3425
ag593
aa(lp3426
g1023
ag238
ag433
aVlib
p3427
ag767
ag1285
aVservices
p3428
ag20
ag97
aVamfphp
p3429
aa(lp3430
Vfrance edit
p3431
ag3002
ag266
aVaccessible depuis
p3432
aVaccessible
p3433
ag658
ag262
aVpicasa
p3434
ag307
ag169
aa(lp3435
g2025
ag32
aVchamps
p3436
ag625
aVcarnet adresses
p3437
aVexport
p3438
aVcarnet
p3439
ag635
ag511
ag433
aa(lp3440
Vrevendeurs integrateurs
p3441
aVrevendeurs
p3442
aVtous environnements
p3443
ag879
aVparole
p3444
aVparole intel
p3445
aVdeclare porte
p3446
ag287
ag192
ag3339
aa(lp3447
g86
aVvia tc
p3448
aVmagnifique eclat
p3449
aVmagnifique
p3450
aVtc
p3451
aVmatinal
p3452
aVmatinal via
p3453
aVeclat rire
p3454
ag984
aVeclat
p3455
aa(lp3456
g227
ag621
aVproposes
p3457
aVgoogle docs
p3458
ag2942
ag791
ag3
ag870
ag270
ag169
aa(lp3459
g1815
aVtnt
p3460
ag260
aVtf1
p3461
aVm6
p3462
aVdeux chaines
p3463
ag922
ag12
ag1392
ag333
aa(lp3464
g1743
ag3131
ag21
ag93
ag88
ag2310
ag96
ag23
ag97
ag95
aa(lp3465
g891
ag3138
ag215
ag991
ag4
ag297
ag1017
ag12
aVtaches
p3466
aVcalendrier
p3467
aa(lp3468
g28
aVnowhere
p3469
aVcompositions
p3470
ag289
aVepoque
p3471
ag433
aVfichier mp3
p3472
ag1769
aVtelecharger fichier
p3473
aVtelecharger
p3474
aa(lp3475
Vpeu pub
p3476
aVprompt
p3477
aVprompt impliquer
p3478
aVdesirez
p3479
aVcomme david
p3480
aVdesirez confier
p3481
aVprojet engage
p3482
aVquand decide
p3483
ag170
ag238
aa(lp3484
Vgoogle sais
p3485
ag28
ag1020
ag192
aVca va
p3486
aVconfigurer
p3487
ag670
ag26
ag54
ag169
aa(lp3488
Vdisposition vient
p3489
aVvient detre
p3490
aVlieu
p3491
aVplaques
p3492
ag3102
aVfigurer
p3493
ag2555
aVnumero departement
p3494
ag2556
aVdepartement
p3495
aa(lp3496
Vsessions
p3497
ag767
aVdemon
p3498
ag730
aVstockage
p3499
aV11211
p3500
ag1285
aVmemcache
p3501
ag97
aVmemcached
p3502
aa(lp3503
Vdisposant php
p3504
aVdisposant
p3505
aVinstalleur plugin
p3506
aVinstalleur
p3507
ag2720
aVscoopeo archive
p3508
aVarchive
p3509
aVplugin scoopeo
p3510
ag66
ag2936
aa(lp3511
g3278
aVorg evidemment
p3512
aVmozilla thunderbird
p3513
aVtape
p3514
ag215
ag47
ag1073
ag472
ag596
ag1139
aa(lp3515
g14
ag1935
ag262
ag994
ag3382
ag21
ag1136
ag19
ag551
ag23
aa(lp3516
Vconcernant
p3517
ag1766
ag622
aVxxxxxxxxx conservez
p3518
aVxxxxxxxxx
p3519
aVheureux adresser
p3520
aVheureux
p3521
aVnoir retours
p3522
ag307
ag1388
aa(lp3523
Vchown
p3524
aVchown www
p3525
ag665
ag149
aVdata www
p3526
aVwww data
p3527
ag2221
aVwww dotclear
p3528
ag1446
ag2223
aa(lp3529
g5
ag352
ag3025
ag2574
aVvoit
p3530
ag1136
ag12
ag27
ag28
ag192
aa(lp3531
Vajoute france
p3532
aVajoute
p3533
aVtravaille ouaiiiiis
p3534
aVtrop envie
p3535
aVouaaaah
p3536
aVouaaaah somptueux
p3537
aVouaiiiiis
p3538
aVouaiiiiis ca
p3539
ag2214
aVenvie racines
p3540
aa(lp3541
Vphp dit
p3542
ag919
aVoccasion
p3543
ag1275
aVoyez
p3544
ag97
ag1018
ag207
ag192
aVthanh
p3545
aa(lp3546
g1437
ag2099
ag232
ag307
ag828
ag4
ag266
ag648
ag260
ag287
aa(lp3547
g1647
ag1948
aVadmirez
p3548
aVonglets ouverts
p3549
aVfonctionnalite firefox
p3550
aVmeme fonctionnalite
p3551
ag1424
aVgros permet
p3552
aVouvertes miniatures
p3553
ag196
aa(lp3554
Vfranche rigolade
p3555
aVfranche
p3556
aVpourquoi franche
p3557
aVmidi declenche
p3558
ag917
aVfois ouvrir
p3559
ag756
aVhmmm desole
p3560
aVderangement
p3561
ag979
aa(lp3562
g3357
ag1656
ag170
ag1291
ag1290
ag92
ag144
ag97
ag20
ag492
aa(lp3563
Vhasard
p3564
ag2160
aVselectionne
p3565
ag648
ag120
aVlynx
p3566
ag260
ag675
ag2667
ag266
aa(lp3567
Vblog suite
p3568
ag887
aVtrouve instant
p3569
aVsympathique export
p3570
ag1446
ag443
ag249
ag28
ag120
ag66
aa(lp3571
Vcountry
p3572
ag2678
ag3130
ag19
ag889
ag1622
ag1361
ag242
ag935
ag23
aa(lp3573
Vfacebook tient
p3574
aVsecurite mysql
p3575
ag1599
aVsurveillance cote
p3576
aVanimera
p3577
aVnovembre prochains
p3578
ag69
ag1370
ag2536
ag97
aa(lp3579
g23
ag19
ag2214
ag169
ag551
ag3427
aVadodb
p3580
ag238
ag556
ag97
aa(lp3581
Vforts linux
p3582
aVcolle
p3583
aVetais
p3584
aVpromotion
p3585
ag250
aVpromotion points
p3586
ag1017
ag238
aVlinux is
p3587
ag262
aa(lp3588
g1499
ag249
ag1135
ag12
ag106
ag1769
ag672
aVpalm
p3589
ag225
ag3093
aa(lp3590
Voubliez waterzoi
p3591
aVlis edit
p3592
aVseptembre prochains
p3593
aVlis
p3594
aVseptembre
p3595
ag595
aVedit oubliez
p3596
aVentre lisez
p3597
ag596
ag307
aa(lp3598
g3033
ag658
ag12
aVthemes jeux
p3599
ag3028
ag1543
ag47
aVart manager
p3600
ag641
aVart
p3601
aa(lp3602
Vgagne
p3603
ag192
aVca ruby
p3604
aVsuper
p3605
aVsuper gagne
p3606
aVgratuit ruby
p3607
aVrails ca
p3608
ag2692
ag1440
ag735
aa(lp3609
g19
ag3130
ag1078
aVplatform
p3610
ag3357
ag23
ag849
ag97
ag238
ag551
aa(lp3611
Vbeen about
p3612
aVubuntu better
p3613
aVabout
p3614
ag657
aVcomment optimiser
p3615
ag22
aVthose
p3616
ag54
ag1359
ag21
aa(lp3617
Vete teste
p3618
aVgris alors
p3619
ag12
aVdroit detester
p3620
aVtheme gris
p3621
ag979
ag111
aVnote
p3622
aVgris
p3623
ag270
aa(lp3624
g1275
ag855
ag2942
ag86
ag849
aVthe web
p3625
ag19
ag23
ag551
ag238
aa(lp3626
Vpremier billet
p3627
aVbon anniversaire
p3628
aVbillet crois
p3629
ag1250
aVlecture
p3630
aV22
p3631
aVjustice faite
p3632
ag249
aVanniversaire
p3633
ag143
aa(lp3634
g458
aV06 lts
p3635
aVchange ca
p3636
aVchange
p3637
aVremarquer
p3638
aVremarquer home
p3639
aVpage ubuntu
p3640
aVdrake
p3641
ag270
ag54
aa(lp3642
Vphenomene naturel
p3643
aVserie
p3644
aVphenomene
p3645
ag5
aVhin si
p3646
aVhin hin
p3647
aVhin
p3648
aVsi etais
p3649
ag3584
ag4
aa(lp3650
g603
ag2536
aVeffectivement marche
p3651
aVmvc
p3652
ag12
ag192
ag69
aVseduit
p3653
ag870
ag227
aa(lp3654
Vblock
p3655
ag430
ag2926
aVlang
p3656
aVres
p3657
ag648
ag1320
ag1318
ag1204
aVrs_cat
p3658
aa(lp3659
Vruby reellement
p3660
aVpages personnelles
p3661
ag2692
aVefficace langage
p3662
aVtres attachant
p3663
aVprepare proposer
p3664
aVreellement
p3665
aVlangage ruby
p3666
ag1418
ag735
aa(lp3667
g3427
ag1288
aVfedora
p3668
ag556
ag19
ag635
ag97
ag22
ag551
ag23
aa(lp3669
Vjsvi
p3670
aVvim jsvi
p3671
aVaccro
p3672
aVvim
p3673
aVaccro vim
p3674
aVmarre editeurs
p3675
aVediteurs
p3676
aVmarre
p3677
aVwysiwyg
p3678
aVjsvi fait
p3679
aa(lp3680
Vca marche
p3681
ag1579
aVwhois ajax
p3682
aVquand ca
p3683
ag351
aVprofitant
p3684
aVmarche ca
p3685
ag1182
ag1604
ag192
aa(lp3686
g14
aVscreen
p3687
ag849
ag107
ag1604
ag3166
ag603
ag889
ag551
ag97
aa(lp3688
g2652
aVauteur
p3689
aVafin envoyer
p3690
aVvoulez
p3691
aVnouvelles matin
p3692
aVechanges fichiers
p3693
aVvoulez eviter
p3694
ag99
aVechanges
p3695
aVreseaux
p3696
aa(lp3697
g386
ag387
ag388
ag389
ag390
ag391
ag392
aVevil are
p3698
ag394
aVaddictif
p3699
aa(lp3700
g386
ag387
ag388
ag389
ag390
ag391
ag392
ag617
ag618
ag394
aa(lp3701
Vgreat day
p3702
aVdirectement bureau
p3703
ag1807
ag248
aVcible directement
p3704
aVbureau repertoire
p3705
aVconnaissais
p3706
aVpermet enregistrer
p3707
aVgreat
p3708
aVclic lien
p3709
aa(lp3710
g145
ag1895
ag70
aVstop
p3711
aValias
p3712
aVsudo lampp
p3713
ag149
ag436
aVxampp
p3714
aVlampp
p3715
aa(lp3716
Vdepart
p3717
ag1365
aVdirection
p3718
aVvelo
p3719
aVvelib
p3720
aVachat
p3721
ag2751
aVrue douai
p3722
aVdouai
p3723
aVrue
p3724
aa(lp3725
g262
aVadopter
p3726
ag1334
aVenjoins essayer
p3727
ag152
aVmaintenue ubuntu
p3728
aVnommee etch
p3729
ag2235
ag867
ag936
aa(lp3730
Vcommence
p3731
aVgenre trucs
p3732
aVquand commence
p3733
aVproduire genre
p3734
ag828
ag1195
ag560
ag351
aVposer
p3735
aVdis via
p3736
aa(lp3737
g3382
ag2180
aVdesktop grand
p3738
aVavoir toucher
p3739
aVto touch
p3740
aVtoucher
p3741
aVtoucher seule
p3742
aVfrancais fait
p3743
ag86
ag1812
aa(lp3744
Vtalent monstre
p3745
ag642
aVtalent
p3746
aVphotographies plupart
p3747
aVphotographies
p3748
aVagregateur celui
p3749
ag249
ag3370
ag307
ag12
aa(lp3750
Vgare
p3751
aVgarage
p3752
aVdire gare
p3753
ag1003
ag2846
aVprisu
p3754
ag12
aVcamionnette
p3755
aVgeorgette
p3756
aVrobert
p3757
aa(lp3758
g192
ag1667
ag718
aVworth
p3759
aVbien evidemment
p3760
ag562
aVcon
p3761
ag287
ag12
ag14
aa(lp3762
g256
ag3605
ag185
aVlongtemps bon
p3763
aVquizz
p3764
aVheros etes
p3765
ag69
aVetes ps
p3766
aVreveillon tous
p3767
ag143
aa(lp3768
Vtrop habitue
p3769
aVajouter quelques
p3770
aVjour blog
p3771
aVajouter
p3772
ag979
ag111
ag2370
ag66
ag1446
ag12
aa(lp3773
g143
ag1541
ag351
aVvia gala
p3774
aVsoudainement bolchevique
p3775
aVsoudainement
p3776
aVgouvernement soudainement
p3777
aVbolchevique bon
p3778
aVmenace
p3779
aVnomination kouchner
p3780
aa(lp3781
Vsi lis
p3782
aVlutte contre
p3783
ag2966
aVpersonnel cherie
p3784
aVpersonnel
p3785
aVeuropeenne intensifie
p3786
ag1722
aVlutte
p3787
ag745
ag192
aa(lp3788
Vtraditional
p3789
ag23
aVmore
p3790
ag3383
aVselectionner
p3791
ag906
ag241
ag19
aVinterface
p3792
ag635
aa(lp3793
Vpossible at
p3794
aVzombo com
p3795
aVzombo
p3796
aVobligatoire
p3797
ag2891
ag257
aVat zombo
p3798
ag791
ag2936
ag14
aa(lp3799
g2154
ag1714
ag2574
ag352
ag966
ag12
aVlevenement
p3800
ag1963
aVdavid
p3801
aVscrum
p3802
aa(lp3803
g422
aVsolutions
p3804
ag1365
aVbureautiques
p3805
ag577
aVpostes bureautiques
p3806
aVministere
p3807
ag2021
ag1576
aVpostes
p3808
aa(lp3809
g2395
ag1105
ag700
aVcurrentdate
p3810
ag701
ag88
ag70
aVdir_backup dbdump_filename
p3811
aVdbdump_filename
p3812
aVdir_backup
p3813
aa(lp3814
g3114
ag387
ag386
aVhonore
p3815
aVdiffuse compos
p3816
aVframasoft
p3817
aVcompos
p3818
aVcompos honore
p3819
aVdiffuse
p3820
aVframasoft diffuse
p3821
aa(lp3822
Vailleurs accessibles
p3823
aVaxes
p3824
aVaccessibles
p3825
aVbillet ca
p3826
ag1334
aVsuggerer axes
p3827
aVphotos ailleurs
p3828
aVsuggerer
p3829
aVaccessibles flux
p3830
ag250
aa(lp3831
g680
ag3772
ag120
ag99
ag2191
aVapplets
p3832
ag1504
aVtableau
p3833
aVtableau bord
p3834
aVbord
p3835
aa.(lp1
(lp2
Vfois plus
p3
aVcouteux utilisez
p4
aVsi pouvez
p5
aVrapide preg_replace
p6
aVrow id
p7
aVutilisez
p8
aVrapide
p9
aVcouteux
p10
aVpreg_replace
p11
aVplus rapide
p12
aa(lp13
Vtutorial
p14
aVof this
p15
aVsymfony and
p16
aVand
p17
aVjobeet
p18
aVsymfony
p19
aVday
p20
aVto
p21
aVof
p22
aVthe
p23
aa(lp24
Vmeme impossible
p25
aVacces reseau
p26
aVcarrement proposition
p27
aVpasse
p28
aVinternet
p29
aVacces
p30
aVmonde
p31
aVtelephone
p32
aVadresses
p33
aVnumeros
p34
aa(lp35
Vordinateur assez
p36
aVproduits tapant
p37
aVacoustique informatique
p38
aVacoustique selon
p39
aVassez distincts
p40
aVuniversite californienne
p41
aVreuters
p42
aVespionnage acoustique
p43
aVacoustique
p44
aVespionnage
p45
aa(lp46
Vubuntu
p47
aVpublic
p48
aVniveau
p49
aVlies
p50
aVeft
p51
aVefforts
p52
aVedgy eft
p53
aVaiglx
p54
aVeffets
p55
aVedgy
p56
aa(lp57
Vcools features
p58
aVliste cools
p59
aVv0 archive
p60
aVplugin
p61
aVlast
p62
aVv0
p63
aVblogmarks v0
p64
aVlast blogmarks
p65
aVplugin last
p66
aVblogmarks
p67
aa(lp68
Vselection sous
p69
aVfonctionne moyen
p70
aVmanuellement decompressez
p71
aVtar
p72
aVset
p73
aVpointeurs
p74
aVset pointeurs
p75
aVgrounation tar
p76
aVgcursor
p77
aVgrounation
p78
aa(lp79
Vvia plateforme
p80
aVmal tout
p81
aVanciennes excellente
p82
aVinitiative edit
p83
aVsecondes via
p84
aVglobal via
p85
aVdivise risques
p86
ag29
aVdrole
p87
aVvia
p88
aa(lp89
Vphp echo
p90
aVthis
p91
aVmessage
p92
aVformulaire
p93
aVclass
p94
aVcontact
p95
aVarray
p96
aVphp
p97
aVnew
p98
aVform
p99
aa(lp100
Vnouvelle mise
p101
aVjour
p102
aV09
p103
aVmise
p104
aVexemples
p105
aVmise jour
p106
aVflash player
p107
aVflash
p108
aVprotozoo
p109
aVplayer
p110
aa(lp111
Vremette quelques
p112
aVconcevoir chouettes
p113
aVjargon
p114
aVjargon officiellement
p115
aVsymfony aime
p116
aVclient processus
p117
aVtemps remette
p118
aVextinction voix
p119
aVaime
p120
aVconception
p121
aa(lp122
Vdoc
p123
aVpdf
p124
aV15
p125
aV13 13
p126
aV13 15
p127
aVniko
p128
aV14
p129
aVglooze
p130
aV13 14
p131
aV13
p132
aa(lp133
Vpartir photographie
p134
aVflash vraiment
p135
aVfoutue rendu
p136
aVfoutue
p137
aVwedding
p138
aVscannee incarnez
p139
aVscannee
p140
aVpersonnalise lien
p141
aVlien application
p142
aVtrailer personnalise
p143
aa(lp144
Vfourni
p145
ag21
aVtypo cd
p146
aVtypo_dev
p147
aVmysql root
p148
aVvers sites
p149
aVsubversion
p150
aVror
p151
aVmysql
p152
aVtypo
p153
aa(lp154
Vsortie aujourd
p155
aVhui enjoins
p156
aVmeilleur systeme
p157
aVenjoins tester
p158
aVderniere release
p159
aVrelease meilleur
p160
aVmonde sortie
p161
aVinstaller utiliser
p162
aVtester installer
p163
aVexploitation monde
p164
aa(lp165
Vgeopositionnement
p166
aVgeopositionnement temps
p167
aVdeveloper challenge
p168
aVseconde outil
p169
aVencore regarder
p170
aVparle
p171
aVgoogle
p172
aVprojet
p173
aVandroid
p174
aVenkin
p175
aa(lp176
Vpetites victimes
p177
aVcentaines petites
p178
aVinsoutenables ames
p179
aVatroce accident
p180
aVpadawan images
p181
aVaccident circulation
p182
aVinnocentes atroce
p183
aVinnocentes
p184
aVabstenir plusieurs
p185
aVvia padawan
p186
aa(lp187
Vtemeraires
p188
aVtoutes fins
p189
aVtorrefaction enfin
p190
aVvia torrefaction
p191
aVsida faites
p192
aVsida efficace
p193
aVfins utiles
p194
aVfaisait plus
p195
aVnom
p196
aVsida
p197
aa(lp198
Vinstall
p199
aVsouci
p200
aVget install
p201
aVnvidia
p202
aVcomposants
p203
aVget
p204
aVtypos
p205
aVcoup sudo
p206
aVapt get
p207
aVapt
p208
aa(lp209
Vtente soigner
p210
aVcurieux savoir
p211
aVpersonnage passerai
p212
aVbon jugez
p213
aVcomme peux
p214
aVaggelos bon
p215
aVfinalement pietre
p216
aVhein jus
p217
aVavere finalement
p218
aVelectorale comme
p219
aa(lp220
Vvraiment facile
p221
aVfaire heures
p222
aVentre
p223
aVtest
p224
aVmozilla
p225
aVpartie
p226
aVautres
p227
aVentre autres
p228
aVfaille
p229
aVsecunia
p230
aa(lp231
Vailleurs part
p232
aVafin
p233
ag224
aVbonne
p234
aVsouvent
p235
ag172
aVmoteur
p236
aVyahoo
p237
aVresultats
p238
aVrecherche
p239
aa(lp240
Voriente web
p241
aVrachat
p242
aVgolive
p243
aVlogiciel retouche
p244
aVfreehand
p245
aVfireworks
p246
aVimage oriente
p247
aVretouche image
p248
aVweb
p249
aVretouche
p250
aa(lp251
Vtextmate
p252
ag19
ag22
aVsome
p253
aVbundle
p254
aVyou
p255
ag17
ag21
aVmate
p256
ag23
aa(lp257
Vgravatars
p258
aVnombre
p259
aVnombre lectures
p260
aVaffiche nombre
p261
aVlectures billet
p262
aVlectures
p263
aVsmilies
p264
ag67
aVbillets
p265
aVaffiche
p266
aa(lp267
Vforum
p268
aVcss
p269
aVwebdesign
p270
aVinsolite
p271
aVsms
p272
aVcategories linux
p273
aVhaha
p274
aVlinux
p275
aVmoto
p276
aVcategories
p277
aa(lp278
Vsic
p279
aVnul
p280
aVverite
p281
aVemail
p282
aVaccueil google
p283
ag172
aVgrand merci
p284
aVnul sait
p285
aVemail contact
p286
aVcafe
p287
aa(lp288
Vgoogle voici
p289
aVsigne conseiller
p290
aVvoici donne
p291
aVgauche lemporte
p292
aVrecherche terme
p293
aVedit rigolo
p294
aVplus mois
p295
aVmorceau
p296
aVmorceau bravoure
p297
aVbravoure
p298
aa(lp299
Vrepris
p300
aVreutilisation
p301
aVressource
p302
aVreprise
p303
aVcontenus
p304
aVcontenu
p305
aVblogueur
p306
aVintentions
p307
aVexistent
p308
aVlicence
p309
aa(lp310
Vchaine television
p311
aVempresse acheter
p312
aVporte six
p313
aVtravail splendide
p314
aVpasse boucle
p315
aVchoix apres
p316
aVsix six
p317
aVtelevision
p318
aVsix
p319
aValbum
p320
aa(lp321
Vlire manuel
p322
aVetre trop
p323
aVclientele
p324
aVclientele edit
p325
aVedit peut
p326
aVcouleur clientele
p327
aVmoins annoncent
p328
aVjeune fille
p329
aV1960
p330
aVfille 1960
p331
aa(lp332
V2030
p333
aV2030 bien
p334
aVnon contente
p335
aVvais priver
p336
aVinstaller clin
p337
aVpub fort
p338
aVimprimante non
p339
aVimprimante laser
p340
aVmateriel edit
p341
aVimprimante
p342
aa(lp343
Vreturn sfview
p344
aVmethode redirect
p345
aVsuccessful
p346
aVsomewhere
p347
aVboo
p348
aVtry
p349
aVcatch
p350
ag91
aVexception
p351
aVredirect
p352
aa(lp353
g276
ag120
aVsais
p354
aVchaines
p355
aVembeter
p356
aVsais aime
p357
aVparce
p358
aVparce sais
p359
aVaime chaines
p360
aVembeter parce
p361
aa(lp362
Vpropulse del
p363
aVus preview
p364
aVpoltergheist
p365
aVca lourd
p366
aVsymfony propulse
p367
aVyahoo poltergheist
p368
aVrame sauf
p369
aValors ca
p370
aVparait symfony
p371
ag19
aa(lp372
Vemporte risque
p373
aVsemble efficace
p374
aVparfait lance
p375
aVcommence gouter
p376
aVbernard laporte
p377
aVgriller
p378
aVversion courte
p379
aVcomment
p380
aVcomme ca
p381
aVedit
p382
aa(lp383
Vbouton milieu
p384
aVfirefox ca
p385
aVcliquer bouton
p386
aVsuivante historique
p387
aVprecedente suivante
p388
aVsuivante
p389
aVbouton
p390
aVhistorique
p391
aVprecedente
p392
aVonglet
p393
aa(lp394
Vinforme petit
p395
aVstealth
p396
aVstealth switch
p397
aVstressswitch usb
p398
aVstressswitch
p399
aVnom gadget
p400
aVyazerty informe
p401
aVfait stealth
p402
aVinfo ca
p403
aVedit yazerty
p404
aa(lp405
Vcreation dun
p406
aVstade
p407
aVmeme
p408
aVentendu
p409
aVbien entendu
p410
ag302
aVguitare
p411
aVconsulter ressource
p412
aVconsulter
p413
aVcest
p414
aa(lp415
Vinitiatives demande
p416
aVnier
p417
aVnier disponibilite
p418
aVinitiaux
p419
aVinitiaux prenons
p420
aVplus 20
p421
aVconnaitre succes
p422
aVcertains
p423
ag275
aVraison
p424
aa(lp425
Veviter methodes
p426
aVeviter lier
p427
aVeviter gens
p428
aVeviter fonction
p429
aVeviter etre
p430
aVeviter essayer
p431
aVeviter erreurs
p432
aVeviter desactiver
p433
aVzxvf eclipse
p434
aVexcellent
p435
aa(lp436
Vlinux archi
p437
aVcd vierge
p438
aVperipherique gravure
p439
aVtelechargement distribution
p440
aVconcept interessant
p441
aVembarquer systeme
p442
aVpage propose
p443
aVprincipe bien
p444
aVreenregistrable afin
p445
aVlinux graver
p446
aa(lp447
Vrealise upian
p448
aVinspiree
p449
aVinspiree ca
p450
aVvia fast
p451
aVdrole extremement
p452
aVclemmy ratp
p453
aVca drole
p454
aVfast clemmy
p455
aVsurtout extremement
p456
aVextremement
p457
aa(lp458
Vcomme ruby
p459
aVtout bonne
p460
aVtitre tant
p461
aVrubyonrails
p462
aVprofessionnalisme effet
p463
aVoffre
p464
aVtyphon
p465
aVcgi fastcgi
p466
aVcgi
p467
aVfastcgi
p468
aa(lp469
Vtrue
p470
aVpublic function
p471
ag94
ag23
aVaddposts
p472
ag91
aVposts
p473
aVid
p474
aVblogpostquery
p475
aVtype
p476
aa(lp477
Vmondomaine
p478
aVmondomaine org
p479
aVsvn
p480
aVtrac monzouliprojet
p481
aVsudo
p482
aVvar
p483
aVvar trac
p484
ag150
aVmonzouliprojet
p485
aVtrac
p486
aa(lp487
Vbelle suivant
p488
aVrendra
p489
aVsuivant essai
p490
aVsous rerentrent
p491
aVrerentrent
p492
aVrerentrent voiture
p493
aValors kawa
p494
aVkawa
p495
aV650 abs
p496
aVvendue
p497
aa(lp498
Vfont size
p499
aVstyle
p500
aVcontent
p501
aVcolor rgb
p502
aVspan
p503
aVsize
p504
aVsize 3d
p505
aVstyle 3d
p506
aVfont
p507
aV3d
p508
aa(lp509
Vutf8_decode
p510
aVout
p511
aVauth
p512
aVagrave
p513
aVstrs
p514
aVcomments
p515
aVstrong strong
p516
aVglobals
p517
aVglobals comments
p518
aVstrong
p519
aa(lp520
Vlecture news
p521
aV3d base
p522
aVdiscours met
p523
aVbase gnome
p524
aVgnome opengl
p525
aVopengl plutot
p526
aVplutot long
p527
aVliens projet
p528
aVvideos
p529
ag173
aa(lp530
Vapres midi
p531
aVpeut faire
p532
aVmal ca
p533
aVmysql user
p534
aVfaire perdre
p535
aVperdre apres
p536
aVnommer table
p537
aVtable mysql
p538
aVnommer
p539
aVuser mal
p540
aa(lp541
Vcreated_at
p542
ag90
aVblogpost
p543
aVauthor
p544
ag23
aVdoctrine
p545
ag91
aVslug
p546
ag97
aVpost
p547
aa(lp548
Vpaf remarque
p549
aVrigole coup
p550
aVtout nu
p551
aVcoup edit
p552
aVnu paf
p553
aVsite poil
p554
aVremarque quand
p555
aVday site
p556
aVjour css
p557
aVrhabille
p558
aa(lp559
g504
ag94
aVdotclear2 v1
p560
aValtimg
p561
aVgravatars dotclear2
p562
aVdotclear2
p563
aVtpl
p564
ag258
aVattr
p565
aVgravatar
p566
aa(lp567
Vdavid hyatt
p568
aVrendu khtml
p569
aVvient finir
p570
aVtest 16
p571
aVpublication dernier
p572
aVchef safari
p573
aVgerer css2
p574
ag224
aVnavigateur
p575
aVsafari
p576
aa(lp577
Vflickr
p578
aVplanet
p579
aVfeeds
p580
aVanciens
p581
aVprendreuncafe commentaires
p582
aVfeeds feedburner
p583
aVfeedburner com
p584
aVcom prendreuncafe
p585
aVflux
p586
aVfeedburner
p587
aa(lp588
Veducation
p589
aVeducation nationale
p590
aVmadame education
p591
aVanonymement
p592
aVlycee
p593
aVlycee motif
p594
aVblog personnel
p595
aVmotif homosexualite
p596
aVtenu sous
p597
aV2006
p598
aa(lp599
Vvia rostaweb
p600
aVcaricature gratuitement
p601
aVpeuple vengent
p602
aVfallait attendre
p603
aVattendre quand
p604
aVhumour surcroit
p605
aVgratuitement betement
p606
aVbetement peuple
p607
aVraison humour
p608
aVrostaweb
p609
aa(lp610
Vlonghorn
p611
aVis
p612
aVufo
p613
aVsearchsidebar
p614
aVsubwoofer
p615
aVflash objects
p616
ag21
ag108
aVdom
p617
aVtags
p618
aa(lp619
Vx2
p620
aVy3
p621
aVx5
p622
aVx1
p623
aVy4
p624
aVx3
p625
aVy2
p626
aVx4
p627
aVdis
p628
aVdi
p629
aa(lp630
Vrobots
p631
aVpiscivores
p632
aVpiscivores boulimiques
p633
aVcompiler permet
p634
aVfusionnent google
p635
aVtiens quoi
p636
aVcombat robots
p637
aVplein
p638
aVgreasemonkey
p639
aVgratuits
p640
aa(lp641
Vdepuis quelque
p642
aVtalent car
p643
aVserveur
p644
aVfree
p645
aVroot
p646
aVcompletement
p647
aVbuffers
p648
aV522104
p649
aVswap
p650
aVram
p651
aa(lp652
Vdell lance
p653
aVlinux hesitez
p654
aVpreferences clients
p655
aVtourner lien
p656
aVrepondre faire
p657
aVlien systeme
p658
aVlinux dell
p659
aVclients potentiels
p660
aVrecueillir
p661
aVdell
p662
aa(lp663
Vtrain
p664
aVcoupelle
p665
aVhotel
p666
aVchauffeurs
p667
aVchambre
p668
aVentrepris
p669
aVsoir
p670
aVni
p671
aVetait
p672
aVluxembourg
p673
aa(lp674
Vform1
p675
aVsource
p676
aVvalue
p677
aVbackground
p678
aVinput
p679
ag474
aVname
p680
aVcode source
p681
aVname id
p682
aVid value
p683
aa(lp684
Vespere amazon
p685
aVmonde 3500
p686
aVcompte trop
p687
aVtrop vendre
p688
aVbout espere
p689
aVexcellent moteur
p690
aVtomber pdf
p691
aVrecherche xul
p692
aVnote trouve
p693
aVvendre beaucoup
p694
aa(lp695
g426
ag427
ag428
ag429
ag430
ag431
ag432
aVeviter effectuer
p696
aVexacte
p697
ag434
aa(lp698
Vprotestations plus
p699
aVabus derapages
p700
aVprotestations
p701
aVvoire payer
p702
aVtaxe si
p703
aVunis comte
p704
aVmalgre nombreuses
p705
aVnotamment
p706
aVstatistiques
p707
aVcomte
p708
aa(lp709
Vdangereuses
p710
aVmalicieux
p711
aVpire elles
p712
aVenvoyer
p713
aVtoto
p714
aVexecutable
p715
aVtxt
p716
aVgmail
p717
aVpire
p718
aVexe
p719
aa(lp720
Vpython
p721
aVpython2
p722
aVpython2 4suite
p723
aV4suite
p724
aVflickruploadr faut
p725
aVadresse compte
p726
aVcompte
p727
aVphotos
p728
ag578
aVflickruploadr
p729
aa(lp730
Vhelas faut
p731
aVvisionner video
p732
aVmardi
p733
aVtuesday
p734
aVphilosophie helas
p735
aVsuper tuesday
p736
aVbistrot mardi
p737
aVmardi super
p738
aVphilosophie
p739
aVtuesday philosophie
p740
aa(lp741
Vdirecte
p742
aVdirectement via
p743
aVskinner gmail
p744
aVrecherche directe
p745
aVpermettant
p746
ag239
aVcomme
p747
aVastuces
p748
aVgmail comme
p749
ag717
aa(lp750
Vedit 13
p751
aVnouvelle semaine
p752
aVmettre version
p753
aVfait avant
p754
aVnouvelle vu
p755
aVlangage vais
p756
aVsi poisson
p757
aVphp4 plus
p758
aVautres fait
p759
aVnouvelle
p760
aa(lp761
Vclic droit
p762
aVfleche
p763
aVgestures
p764
aVmouse
p765
aVmouse gestures
p766
aVdroit
p767
aValt fleche
p768
aVclic gauche
p769
aVclic
p770
aVgauche
p771
aa(lp772
Vepaule
p773
aVcodant bon
p774
aVregarder fais
p775
aVdouce tendre
p776
aVdouce
p777
aVpenche epaule
p778
aVcodant
p779
aVordi codant
p780
aVquoi
p781
aVfais
p782
aa(lp783
Voui
p784
aVca
p785
aVrealisee
p786
aVitalien
p787
aVgianni motti
p788
aVgianni
p789
aVmotti
p790
aVsavonnette
p791
aVsavonnette realisee
p792
aVartiste
p793
aa(lp794
Vpy
p795
aVpresentations
p796
aVlogiciel
p797
aVkeyjnote keyjnote
p798
aVkeyjnote tar
p799
aVkeyjnote py
p800
ag72
ag124
ag721
aVkeyjnote
p801
aa(lp802
Vedit jeudi
p803
aVvu forum
p804
aVnouveau logo
p805
aVorg nouveau
p806
aVofficiel microsoft
p807
aVpompeur logos
p808
aVrien edit
p809
aVpompeur
p810
aV2005 maintenant
p811
aVjeudi avril
p812
aa(lp813
Vpausekawa
p814
aVpausekawa sinon
p815
aVscene cochon
p816
aVtour jeu
p817
ag208
ag207
aVsudo apt
p818
aVjeu
p819
aVtetris
p820
aVbastet
p821
aa(lp822
Vnumerises accessibles
p823
aVprecurseur
p824
aVprecurseur niveau
p825
aVpdf pres
p826
aVfrance fait
p827
aVquitter fauteuil
p828
aVtemps bien
p829
aVfrance propose
p830
aVconnaissance quitter
p831
aVfrance
p832
aa(lp833
g151
aVgem install
p834
aVrubygems
p835
aVrubygems 11
p836
aVgem
p837
aVradrails
p838
aVsudo gem
p839
ag482
ag199
aVruby
p840
aa(lp841
Vmtasc production
p842
aVmtasc proposera
p843
aVthey didn
p844
ag408
aVpart
p845
aVreason
p846
aVcompilo
p847
aVutiliser mtasc
p848
aVmacromedia
p849
aVmtasc
p850
aa(lp851
Vvierge graver
p852
aVedit preuve
p853
aVbavure
p854
aVhome regulierement
p855
aVefficace bavure
p856
aVbackuper
p857
aVmentale
p858
aVsimplement dieu
p859
aVregulierement
p860
aVhubackup
p861
aa(lp862
Vhalle
p863
aVchez
p864
aVfaire
p865
aVpersonne
p866
aVoppose
p867
aVsexe
p868
aVsexe oppose
p869
aVchoses
p870
aVsept choses
p871
aVsept
p872
aa(lp873
Vserveurs
p874
ag671
ag391
aVservice
p875
aVeffectuees
p876
aVparties
p877
aVtierces
p878
aVtierces parties
p879
aVinformations
p880
ag172
aa(lp881
Vtrucs
p882
aVboite
p883
aVchapeau
p884
aVgars
p885
aVtrucs plutot
p886
aVplutot utiles
p887
aVchapeau gars
p888
aVutiles boite
p889
aVboite chapeau
p890
aVfait trucs
p891
aa(lp892
Vcoup fini
p893
aVseule nouvelle
p894
aVcontent edit
p895
aVcontre bloic
p896
aVfini rire
p897
aVrapportee
p898
aVrapportee soir
p899
aVrevient content
p900
aVreste coup
p901
aVedit contre
p902
aa(lp903
Vbien dont
p904
aVpossible
p905
aVgestion
p906
aVdefaut
p907
aVliste
p908
aVresultat
p909
aVmozbot
p910
aVdesactivable
p911
ag239
aVrecherches
p912
aa(lp913
Vquelques images
p914
aVconstruire piscines
p915
aVconstruire
p916
aVvirtuelles
p917
aVmaniere yann
p918
aVcity 3000
p919
aVbleue tel
p920
aVmaps peu
p921
aVtel gulliver
p922
aVtemps modernes
p923
aa(lp924
Vproposition poste
p925
aVinternet resiste
p926
aVespere expediteur
p927
aVplaisir faire
p928
aVnotions accessibilite
p929
aVsaura pardonner
p930
aVresiste plaisir
p931
aVdernier plutot
p932
aVnotions
p933
aVexpediteur saura
p934
aa(lp935
Vheure tout
p936
aVpetition ligne
p937
aVimages jusqu
p938
aVcur dit
p939
aVcur
p940
aVcrime laisse
p941
aVpoint seule
p942
aVheure
p943
aVarret
p944
aVemission
p945
aa(lp946
Vgenre
p947
aVcoherents
p948
aVappliquer standards
p949
aVgenre code
p950
aVutiliser noms
p951
aVappliquer
p952
aVstandards codage
p953
aVcodage
p954
aVcode
p955
aVpopol
p956
aa(lp957
Vcote ci
p958
aV2006 pendant
p959
aVedit octobre
p960
aVnativement ubuntu
p961
aVgrandes belles
p962
aVoctobre 2006
p963
aVordinateurs embarquant
p964
aVmateriel complet
p965
aVubuntu support
p966
aVtiens
p967
aa(lp968
Vosflash
p969
aVchuwiki
p970
aVtools
p971
aVfor
p972
aVdigital
p973
ag644
ag97
aVdemo
p974
aVrss
p975
ag618
aa(lp976
Vare
p977
ag17
aVtheres
p978
aVdocs
p979
aVgoogle your
p980
ag612
ag172
aVis google
p981
aVare google
p982
aVyour
p983
aa(lp984
Vsemble implementee
p985
ag408
aVpropre
p986
aVjava
p987
aVoperations
p988
aVeffectuer
p989
ag227
aVautres operations
p990
aVconnexion
p991
aVexceptions
p992
aa(lp993
Vplateforme technique
p994
aVretard quand
p995
aVrefactoree rapport
p996
aVrefactoree
p997
aVplace plateforme
p998
ag760
aVversion
p999
aVplateforme
p1000
aVnouvelle version
p1001
aVsplitgames
p1002
aa(lp1003
Vjay fournisseur
p1004
aVtel passer
p1005
aVpoint click
p1006
aVlaquelle retrouve
p1007
aVpetits jeux
p1008
aVmatin
p1009
aVtemps
p1010
aVjeux
p1011
aVescape
p1012
aVroom
p1013
aa(lp1014
Vinpact zdnet
p1015
aVpasse ainsi
p1016
aVzdnet actu
p1017
aVinformatif accessoirement
p1018
aVcoup crayon
p1019
aVviens supprimer
p1020
aVcoeur metier
p1021
aVtrop
p1022
aVinformation
p1023
aVblogs
p1024
aa(lp1025
Vpublie
p1026
aVdune
p1027
ag249
aVdojo
p1028
aVapplications
p1029
aVlocal
p1030
aVdonnees
p1031
aVgoogle gears
p1032
ag172
aVgears
p1033
aa(lp1034
Vtrains trouvent
p1035
aVtrains
p1036
aVsomme actuellement
p1037
aVprochaines gares
p1038
aVbloques gare
p1039
aVattention
p1040
ag943
aVplait
p1041
aVattention plait
p1042
aVbloques
p1043
aa(lp1044
g172
aVlance google
p1045
aVarrete plus
p1046
aVgoogle lance
p1047
aVearth francais
p1048
aVfrancais linux
p1049
aVzorgloob arrete
p1050
aVzorgloob
p1051
aVvia zorgloob
p1052
aVplus google
p1053
aa(lp1054
Vavocat nice
p1055
aVpropos diffamatoires
p1056
aVdiffamatoires
p1057
aVdelai 48
p1058
aVjuridique
p1059
aV48 heures
p1060
aVfautes
p1061
aVpropos
p1062
aVnice
p1063
aVdew
p1064
aa(lp1065
Veau turquoise
p1066
ag672
aVvie
p1067
aVmange
p1068
aVheures
p1069
aVcalanques
p1070
aVgigot agneau
p1071
aVgigot
p1072
aVagneau
p1073
aVfait
p1074
aa(lp1075
Vhab tres
p1076
aVsymfony repondant
p1077
aVimporte objet
p1078
aVprochainement tres
p1079
aVutilise projet
p1080
aVnom sfpropelactastaggablebehaviorplugin
p1081
aVobjets types
p1082
ag61
aVtres
p1083
aVxavier
p1084
aa(lp1085
g47
ag23
aVhas
p1086
aVbasee
p1087
ag22
ag972
aVdistrowatch
p1088
ag275
aVdistribution
p1089
aVlinux basee
p1090
aa(lp1091
Vversion liferea
p1092
aVlink rel
p1093
aVarnaud
p1094
aVrel icon
p1095
aVtype link
p1096
aVarnaud typhon
p1097
ag476
aVbug
p1098
aVfavicon
p1099
aVliferea
p1100
aa(lp1101
Vtime
p1102
aVthere
p1103
ag22
aVdon
p1104
aVbut
p1105
ag21
aVso
p1106
ag17
aVfor now
p1107
ag23
aa(lp1108
Verreur avertissant
p1109
aVtentant afficher
p1110
aVdit troll
p1111
aVfameux coup
p1112
aVcoup message
p1113
aVintervenue
p1114
aVviolente
p1115
ag92
aVmessage erreur
p1116
aVerreur
p1117
aa(lp1118
Vbasta
p1119
aVdjango daniel
p1120
aVbasta oui
p1121
aVsup por
p1122
aV118 818
p1123
aVpourrir ecoute
p1124
aVtelephoniques commencant
p1125
aVarrivent pourrir
p1126
aVpubs
p1127
aV118
p1128
aa(lp1129
Vutiles lire
p1130
ag208
ag907
aVlire
p1131
aVpaquets
p1132
aVlecteur
p1133
aVmultimedia
p1134
aVsupplementaires
p1135
aVvlc
p1136
aVxfmedia
p1137
aa(lp1138
Vvraiment
p1139
aVrire
p1140
aVmec
p1141
aVdingue
p1142
aVencore rire
p1143
aVpleure
p1144
aVpleure encore
p1145
aVvraiment dingue
p1146
aVmec vraiment
p1147
aVrire mec
p1148
aa(lp1149
Vvisualiser
p1150
aVextension permet
p1151
aVviewer
p1152
aVscripts greasemonkey
p1153
aVdublin core
p1154
aVdublin
p1155
ag639
ag717
aVscripts
p1156
aVextension
p1157
aa(lp1158
Vsi
p1159
aVbien
p1160
aVallez
p1161
aVxp
p1162
aVgrands
p1163
aVpartition
p1164
aVorthographe
p1165
aVpartition xp
p1166
aVpirate
p1167
ag287
aa(lp1168
Vpres
p1169
aVpeu pres
p1170
aVkagou
p1171
aVvia kagou
p1172
aVkagou peu
p1173
aV11h
p1174
aVavant 11h
p1175
aVmatin avant
p1176
aVpres matin
p1177
aV11h faire
p1178
aa(lp1179
Vfait ainsi
p1180
aVca change
p1181
aVphp actionscript
p1182
aV10 constate
p1183
aVjavac test
p1184
aVcode commente
p1185
aVjava test
p1186
ag224
ag987
aVtest java
p1187
aa(lp1188
Vdouteux
p1189
aVdis douteux
p1190
aVetre dis
p1191
ag784
aVdis oui
p1192
aVdit
p1193
aVbetterave
p1194
aVnon
p1195
aVdis non
p1196
ag628
aa(lp1197
Vautres services
p1198
aVnouveau mot
p1199
aVshell
p1200
aVauthentification
p1201
ag28
aVmot
p1202
aVmot passe
p1203
aVpasse root
p1204
ag646
ag152
aa(lp1205
Vfree si
p1206
ag832
ag645
ag28
aVca passe
p1207
aVcoup
p1208
aVtelecom
p1209
aVfrance telecom
p1210
ag34
aVconcurrents
p1211
aa(lp1212
V18 46
p1213
aVnavigateurs
p1214
aV44
p1215
aV46
p1216
aV18 44
p1217
aV45
p1218
aV18 45
p1219
aVmt
p1220
ag128
aV18
p1221
aa(lp1222
Vexternals
p1223
aVsvn externals
p1224
ag173
ag128
aV02
p1225
aVmonprojet
p1226
aVtrunk
p1227
aVvendor
p1228
ag19
ag480
aa(lp1229
g696
ag431
aVsite
p1230
ag88
aVpeur
p1231
aVvia site
p1232
aVsite peur
p1233
aVkwyxz
p1234
aVkwyxz via
p1235
aVvia kwyxz
p1236
aa(lp1237
Vlinkedin
p1238
ag255
aVonline
p1239
ag21
aVtraffic
p1240
aVtags flash
p1241
ag108
ag23
aVcomic
p1242
ag618
aa(lp1243
Vfeu barrait
p1244
aVoui habite
p1245
aVidee posseder
p1246
aVfeu faisant
p1247
aVfaire detour
p1248
aVborne incendie
p1249
aVdetour kilometre
p1250
aVsais banlieue
p1251
aVrentrer chez
p1252
aVfeu
p1253
aa(lp1254
Vhello
p1255
ag17
aVpatterns
p1256
aVhello world
p1257
aVffmpeg php
p1258
aVffmpeg
p1259
ag618
ag269
ag97
aVjavascript
p1260
aa(lp1261
Vchoisissez
p1262
aVsoftware updates
p1263
aVupdates choisissez
p1264
aVsubclipse version
p1265
aVversion subclipse
p1266
aVselectionnez
p1267
ag999
aVeclipse
p1268
aVpdt
p1269
aVsubclipse
p1270
aa(lp1271
Vdeveloppeur
p1272
ag1010
aVrealite
p1273
aVutilisation framework
p1274
aVpeut
p1275
aVdeveloppement
p1276
aVplus
p1277
ag1160
ag19
ag173
aa(lp1278
Vsinon lien
p1279
aVfaut flash
p1280
aVplayer visionner
p1281
ag731
aVpublicite
p1282
aVjolie
p1283
aVjolie publicite
p1284
aVtres jolie
p1285
aVbistrot helas
p1286
aVdirect tres
p1287
aa(lp1288
Vtremie
p1289
aVab etude
p1290
aVpetites bebetes
p1291
aVmeunier afin
p1292
aVhonnetes
p1293
aVhonnetes secteur
p1294
aVglobal plus
p1295
aVsituaient dessus
p1296
aVappartement voici
p1297
aVpose balustrade
p1298
aa(lp1299
Vubuntu moins
p1300
aVpain planche
p1301
aVscott james
p1302
aVscott
p1303
aVtout utilisateur
p1304
aVtrouve idee
p1305
aVstartup sound
p1306
aVdesormais atteler
p1307
aVdanser agiter
p1308
aVbras air
p1309
aa(lp1310
g972
ag832
ag172
aVdepuis france
p1311
aVfor firefox
p1312
ag529
aVvideo
p1313
ag639
aVscript
p1314
aVgoogle video
p1315
aa(lp1316
Vparution blog
p1317
aVparution
p1318
aVarticle symfony
p1319
aVco ecrit
p1320
aVsymfony co
p1321
aVsignale parution
p1322
aVsable xavier
p1323
aVxavier tristan
p1324
aVage article
p1325
aVecrit mains
p1326
aa(lp1327
Vrelativement important
p1328
aVtester tenue
p1329
aVhebergement typhon
p1330
aVpublic blog
p1331
aVmatin heberge
p1332
aVgarde hebergement
p1333
aVconstatee
p1334
aVheberge dedibox
p1335
aVcharge traffic
p1336
aVcharge
p1337
aa(lp1338
Vreseau
p1339
aVubuntu hoary
p1340
aVubuntu com
p1341
aVhoary
p1342
aVcom ubuntu
p1343
aVdeb
p1344
ag202
aVmain restricted
p1345
aVrestricted
p1346
ag47
aa(lp1347
Vmac
p1348
aVmac os
p1349
aVthunderbird
p1350
aVversions
p1351
aVwindows mac
p1352
aVfr
p1353
aVjour via
p1354
aVfr windows
p1355
aVlocalisations
p1356
aVos linux
p1357
aa(lp1358
Vaccueil assez
p1359
aVsympa bien
p1360
aVmoche
p1361
aVmoche instant
p1362
aVorganiser page
p1363
aVinstant imagine
p1364
aVca assez
p1365
aVassez
p1366
aVsympa
p1367
aVassez sympa
p1368
aa(lp1369
Vprivateer
p1370
aVrss and
p1371
aVprivateer remake
p1372
aVkeyboard
p1373
aVflash filters
p1374
aVdocumentation
p1375
aVatom
p1376
ag23
aVfilters
p1377
ag618
aa(lp1378
Vmecanique fluides
p1379
aVmecanique
p1380
aVfournit vrais
p1381
aVplus drole
p1382
aVpleurer
p1383
aVanime quand
p1384
aVpleurer jo
p1385
aVgif plus
p1386
aVgif anime
p1387
aVgif
p1388
aa(lp1389
Vsymfony tous
p1390
aVpropulser recent
p1391
aVpropulser
p1392
aVhesitez aider
p1393
aVequipes symfony
p1394
aVfaire framework
p1395
aVmontee tres
p1396
aVframework
p1397
ag237
ag19
aa(lp1398
Vid_dsa
p1399
aVmonlogin
p1400
ag714
aVhost
p1401
aVtoto host
p1402
aVtiti
p1403
aVhost org
p1404
aVxx
p1405
aVpassphrase
p1406
aVssh
p1407
aa(lp1408
Vsortie canard
p1409
aVpiaf
p1410
aVpiaf comme
p1411
aVinvite sous
p1412
aVpart craque
p1413
aVbarre 300
p1414
aVrenoncer certains
p1415
ag747
ag382
aVpasser
p1416
aa(lp1417
Vfonctionne egalement
p1418
aVindispensable firefox
p1419
ag1157
aVmail
p1420
ag282
aVfirefox
p1421
aVjetable
p1422
ag1151
aVjetable mail
p1423
aVgtranslate
p1424
aa(lp1425
Vnano imprimantes
p1426
aVmaladies
p1427
aVmaladies genetiques
p1428
aVetre grise
p1429
aVenergie transistors
p1430
aVclassiques quoi
p1431
aVtransistors classiques
p1432
aVproduire
p1433
aVnano
p1434
aVtransistors
p1435
aa(lp1436
Vone but
p1437
aVto good
p1438
aVlistening to
p1439
aVlistening
p1440
aVtune of
p1441
ag23
aVlike
p1442
ag20
aVgood
p1443
aVguitar
p1444
aa(lp1445
Vrc comment_auteur
p1446
aVnbposts
p1447
aVreqplus
p1448
aVdc_comment
p1449
aVdo_exclure
p1450
aVcomment_site
p1451
aVnb
p1452
aVexclure
p1453
aVrc
p1454
aVcomment_auteur
p1455
aa(lp1456
Vbeaucoup
p1457
aVsemble
p1458
ag1193
aVplay
p1459
aVkno
p1460
aVsoleil
p1461
aVjuste
p1462
aVdansants
p1463
aVazteques dansants
p1464
aVazteques
p1465
aa(lp1466
Vmain
p1467
aVexemple
p1468
aVopt
p1469
aVpermet
p1470
aVoption
p1471
aVopt mtasc
p1472
aVpermet definir
p1473
ag224
ag850
aVswf
p1474
aa(lp1475
g431
ag432
ag696
ag427
aVeventuels directement
p1476
aVwell
p1477
aVreally
p1478
aVerr
p1479
aVwell err
p1480
aVerr really
p1481
aa(lp1482
Vgouts nature
p1483
aVconvaincu tous
p1484
aVmonte rend
p1485
aVinternational ceux
p1486
aVplus disponible
p1487
aVmouture navigateur
p1488
aVinternational
p1489
aVsort aujourd
p1490
ag575
aVlancement
p1491
aa(lp1492
Vetes
p1493
aVfaites
p1494
aVcoin
p1495
aVvia bistro
p1496
aVbistro
p1497
aVbistro coin
p1498
aVcoin etes
p1499
aVetes jaloux
p1500
aVjaloux
p1501
aVjaloux faites
p1502
aa(lp1503
Vpot pfffff
p1504
aVconfortable quotidien
p1505
aVterriblement surtout
p1506
aVvaux 6500
p1507
aVconfortable
p1508
aVimaginer version
p1509
ag408
aVtombe
p1510
aVquand meme
p1511
ag276
aa(lp1512
Valors dalerter
p1513
aVjaurai beaucoup
p1514
aVhonte jai
p1515
aVnutiliserai
p1516
aVessentiellement developpement
p1517
aValors
p1518
aVdeveloppe
p1519
aVjai
p1520
aVinfos
p1521
ag414
aa(lp1522
Vbase effectue
p1523
aVperdre toute
p1524
ag644
aVviens
p1525
aVtoutes
p1526
ag785
ag718
aVfacons
p1527
aVtoutes facons
p1528
aVguillemets
p1529
aa(lp1530
Vsociete bresilienne
p1531
aVvoila bon
p1532
aVorigine distribution
p1533
aVdizaine heures
p1534
aVavant sortie
p1535
aVnom recemment
p1536
aVdistribution meme
p1537
aVannoncer communique
p1538
aVvoila
p1539
aVvoila voila
p1540
aa(lp1541
Vfort toujours
p1542
aVsemaine logo
p1543
aVjours espaces
p1544
aVmoins scrupules
p1545
aVplagiat semaine
p1546
aVespaces msn
p1547
aVapres microsoft
p1548
aVscrupules fois
p1549
aVcharge plagiat
p1550
aVscrupules
p1551
aa(lp1552
Vex
p1553
ag88
ag1089
ag8
ag598
ag1171
ag1172
aVdistribution utilisez
p1554
aVutilisez 2006
p1555
aVkagou distribution
p1556
aa(lp1557
Vpuissant
p1558
aVnotification
p1559
aVwebmastering
p1560
aVnotifier
p1561
aVnotification arrivee
p1562
aVnotifier icone
p1563
aVicone notification
p1564
aVpagerank
p1565
aVnavigation
p1566
aVbookmarks
p1567
aa(lp1568
Vsimplement symfony
p1569
aVplugins releases
p1570
aVmarche plugins
p1571
aVsuivre tres
p1572
aVgerer sondages
p1573
ag19
ag61
aVplugins
p1574
aVpropel
p1575
aVplugin permet
p1576
aa(lp1577
g28
ag972
aVmodule
p1578
aVcontrol
p1579
ag646
aVcontrol module
p1580
aVwebmin webmin
p1581
aVmodule for
p1582
aVfor webmin
p1583
aVwebmin
p1584
aa(lp1585
Vportable basique
p1586
aVequipe origine
p1587
aVamd cadence
p1588
aVhat memoire
p1589
aVceux acces
p1590
aVflash go
p1591
aVvu passer
p1592
aVusb connectivite
p1593
aVlibre base
p1594
aVportable
p1595
aa(lp1596
Voctets encore
p1597
aVangoisse faille
p1598
aVdiversifiee plus
p1599
aVutilisation
p1600
aVsimplement
p1601
aVespaces
p1602
aVcaracteres
p1603
ag1202
ag28
ag1203
aa(lp1604
Vbest of
p1605
aVluk manque
p1606
aVsamva
p1607
aVgilus
p1608
aVtchot6
p1609
aVmanque ul
p1610
aVul
p1611
aVpseudo
p1612
aVluk
p1613
aVazharh
p1614
aa(lp1615
Vcomprends pu
p1616
aVjuste truc
p1617
aVfin poisson
p1618
aVnovell deja
p1619
aVnovell fait
p1620
aVjustifient yeux
p1621
aVlibres commentaire
p1622
ag1089
aVcanonical
p1623
aVnovell
p1624
aa(lp1625
Vequation femme
p1626
aVspecimen humour
p1627
aVbeau specimen
p1628
ag784
aVailleurs
p1629
aVcher
p1630
aVlogo
p1631
aVdroite
p1632
ag281
aVrions
p1633
aa(lp1634
Vspammeur
p1635
aVwireless
p1636
aVmms
p1637
aVterminologie
p1638
aVarrosage
p1639
aVdevient
p1640
aVfi
p1641
aVwi fi
p1642
aVwi
p1643
aVasfi
p1644
aa(lp1645
Vof them
p1646
aVthem
p1647
aVmegan fry
p1648
aVfry
p1649
aVmegan
p1650
ag23
aVtarget
p1651
aVshe
p1652
aVthe troopers
p1653
aVtroopers
p1654
aa(lp1655
g47
ag1089
aVubuntu linux
p1656
ag1342
aV1er
p1657
aV04
p1658
ag275
aVhoary 04
p1659
aV1er avril
p1660
aVavril
p1661
aa(lp1662
g1086
aVbeen
p1663
aVnumber
p1664
aVhas been
p1665
ag255
aVyour order
p1666
aVorder has
p1667
aVorder number
p1668
aVreceipt
p1669
aVorder
p1670
aa(lp1671
Vcategories web
p1672
aVneokraft
p1673
aVdesign css
p1674
aVweb design
p1675
aVblog linux
p1676
aVcategories blog
p1677
aVcategories geek
p1678
aVgeek
p1679
aVblog
p1680
ag277
aa(lp1681
Voui sujectif
p1682
aVprevisualisation xslt
p1683
aVajout flux
p1684
aVextensions themes
p1685
aVsemaine bonheur
p1686
aVcomment verifier
p1687
aVpeut rire
p1688
aVsujectif
p1689
aVmoindre joli
p1690
ag1140
aa(lp1691
Vjpeg swf
p1692
aVrewriterule gif
p1693
aVrewritecond
p1694
aVnc rewriterule
p1695
aVcom nc
p1696
aVrewritecond http_referer
p1697
aVjpg
p1698
aVnc
p1699
aVmyspace
p1700
aVmyspace com
p1701
aa(lp1702
Vv5 hd
p1703
aVv5
p1704
aVnews moisie
p1705
aVmoisie venger
p1706
aVok news
p1707
aVmoisie
p1708
aVfreebox v5
p1709
aVfreebox freebox
p1710
aVvenger commande
p1711
aVfreebox
p1712
aa(lp1713
Vin
p1714
aVmore
p1715
aVmoment chat
p1716
aVstereotypes
p1717
aVconclusions
p1718
aVchat
p1719
ag23
aVpopulation
p1720
aVinfected
p1721
aVparasite
p1722
aa(lp1723
Vfois touche
p1724
aVlors initialisation
p1725
aVlangue disposition
p1726
aVaffichee framebuffer
p1727
aVvoyez bon
p1728
aVbon accord
p1729
aVhorloge lancement
p1730
aVlinstallateur
p1731
aVrenvoyee bus
p1732
aVvaleur
p1733
aa(lp1734
Vcas framework
p1735
aVbeaucoup vacances
p1736
ag1457
aVcote
p1737
aVcependant
p1738
ag1575
ag545
ag19
ag1397
ag1458
aa(lp1739
Vchaud
p1740
aVefficace sudo
p1741
aVbonne journee
p1742
aVfaire apres
p1743
aVpeux dire
p1744
aVsouhait shoot
p1745
aVxsoldier peux
p1746
aVxsoldier note
p1747
aVsouhait
p1748
aVxsoldier
p1749
aa(lp1750
Vprevisualisation
p1751
aVlors
p1752
aVpage
p1753
aV12
p1754
aVtab
p1755
ag266
ag1470
aVxpi permet
p1756
aVonglets
p1757
aVxpi
p1758
aa(lp1759
Vrigolo destine
p1760
aVhtml voici
p1761
aVcan haz
p1762
aVresultat premiere
p1763
aVoublier balises
p1764
aVevaluer connaissance
p1765
aVcomment diable
p1766
aVbistrot petit
p1767
aVbalises disponibles
p1768
aVbalises
p1769
aa(lp1770
g840
aVtar gz
p1771
aVdomaine
p1772
ag835
aVpassenger
p1773
ag72
aVrails
p1774
ag1469
aVopt redmine
p1775
aVredmine
p1776
aa(lp1777
Vtheme
p1778
aVsql
p1779
aVupgrade
p1780
ag61
aVdotclear
p1781
aVmacros
p1782
aVindispensable
p1783
aVsyntaxique
p1784
aVcolorisation syntaxique
p1785
aVcolorisation
p1786
aa(lp1787
Vversion corrige
p1788
aVmal failles
p1789
aVencourage upgrader
p1790
aVmonde encourage
p1791
aVversion mac
p1792
aVpanda rouge
p1793
aVlinux firefox
p1794
ag1421
ag999
aVfirefox version
p1795
aa(lp1796
Veviter tenter
p1797
ag1010
aVtous
p1798
aVblague
p1799
aVmeilleure
p1800
aVtous temps
p1801
aVblondes
p1802
aVblondes tous
p1803
aVblague blondes
p1804
aVmeilleure blague
p1805
aa(lp1806
g644
ag1737
aVdoit
p1807
ag1474
aVgenerer
p1808
aVrelativement
p1809
ag1630
aVgraphiques
p1810
aVcote serveur
p1811
aVoutils
p1812
aa(lp1813
Veventuellement pourquoi
p1814
aVsite lire
p1815
aVcontenus prendre
p1816
aVoffre services
p1817
aVprofiter linstant
p1818
aVautour technologies
p1819
aVtravailler ensemble
p1820
aVbebe durent
p1821
aVpourquoi travailler
p1822
aVakei
p1823
aa(lp1824
Vscripts detection
p1825
aVpasser boulets
p1826
aVmieux ca
p1827
aVdetection os
p1828
aVbien marchent
p1829
aVjava actives
p1830
aVactives bref
p1831
aVflash java
p1832
aVtout capture
p1833
aVbrowsers bien
p1834
aa(lp1835
Vmise vente
p1836
aVsociete repondu
p1837
aVinternet reflexion
p1838
aVsujet aime
p1839
aVextrement ethique
p1840
aVlargement carcan
p1841
aVgandi net
p1842
aVpassionnante
p1843
aVdefraye chronique
p1844
aVassocies
p1845
aa(lp1846
Vlibriste spreadlinux
p1847
aVainsi toujours
p1848
aVvrac rappellant
p1849
aVdont mission
p1850
aVspreadlinux alors
p1851
aVspreadlinux
p1852
aVmission avouee
p1853
aVliens vrac
p1854
aVrecenser materiel
p1855
aVpropagande libriste
p1856
aa(lp1857
Vtemps encore
p1858
aVfan kde
p1859
aVengrenages kde
p1860
aVtres fan
p1861
aVkde puis
p1862
aVengrenages
p1863
aVdedans comme
p1864
aVstable bon
p1865
ag1208
aVkde
p1866
aa(lp1867
g427
ag428
ag429
ag430
ag431
ag432
ag696
ag88
aVengadget
p1868
aVvia engadget
p1869
aa(lp1870
g108
aVbody
p1871
aVproportionnelles
p1872
aVvaleurs proportionnelles
p1873
aVexprimees
p1874
ag499
aVbody font
p1875
aVobjet flash
p1876
aVtaille
p1877
aVvaleurs
p1878
aa(lp1879
Vconsentement
p1880
aVconsentement aucun
p1881
aVprofils
p1882
aVrenvoye
p1883
aVrenvoye requete
p1884
aVdirigeants societes
p1885
aVsocietes propose
p1886
aVbernard tapie
p1887
aVrecherche parmi
p1888
aVprofils employes
p1889
aa(lp1890
Vacceder
p1891
aVsoft
p1892
ag1162
aV32
p1893
ag1031
aVpartitions
p1894
aVfat
p1895
aVfichier paume
p1896
aVpaume
p1897
ag1164
aa(lp1898
Vtout totalement
p1899
aVcommercial film
p1900
aVfermes deguster
p1901
aVtemps prete
p1902
aVgenial petit
p1903
aVhumour imagination
p1904
aVsi succes
p1905
aVimagination propose
p1906
aVdernier wallace
p1907
aVwallace
p1908
aa(lp1909
Vseul repproche
p1910
aVsous konqueror
p1911
aVnouveau seduites
p1912
aVsortie dapper
p1913
aVproblemes lenteur
p1914
aVrepproche apres
p1915
aVrapide adore
p1916
ag1757
aVonglets sous
p1917
aVgnome
p1918
aa(lp1919
V100
p1920
ag98
aV161 array
p1921
ag123
aVsvg
p1922
aVlinkedstar
p1923
aV161
p1924
aVstar
p1925
aVgradient
p1926
ag96
aa(lp1927
Vsi surcout
p1928
aVecran capacites
p1929
aVvoila piste
p1930
aVmalgre prix
p1931
aVminuscule ecran
p1932
aVminuscule
p1933
aVsurtout si
p1934
aVfait oeil
p1935
aVvraiment emballe
p1936
ag781
aa(lp1937
Ventame 5eme
p1938
aVentame
p1939
aVofficiel egalement
p1940
aVhier cerise
p1941
aVpubliee site
p1942
aVpubliee
p1943
aVdessus risque
p1944
aVcroyez pouvez
p1945
aVruer
p1946
ag19
aa(lp1947
Vagremente backports
p1948
aVlinux donc
p1949
aVlinux mandriva
p1950
aVtiens domaine
p1951
aVrien testerai
p1952
aVubuntu chose
p1953
aVhui succede
p1954
ag1089
aVdistribution linux
p1955
aVmandriva
p1956
aa(lp1957
Vonline tools
p1958
aVapache
p1959
ag971
ag1239
aVsimple php
p1960
ag21
aVphp blog
p1961
ag23
aVwhois
p1962
ag618
aa(lp1963
Vpersonne hier
p1964
aVinsistantes
p1965
aVinsistantes pressions
p1966
aVinsistez
p1967
aVinsistez beaucoup
p1968
aVchouette faudra
p1969
aVsheas
p1970
aVprendre
p1971
aVnovembre
p1972
aVcelles
p1973
aa(lp1974
Vscientifique
p1975
aVpage facebook
p1976
aVwhom share
p1977
aVwhom
p1978
aVinconnus
p1979
aVmy facebook
p1980
aVclive
p1981
aVmy
p1982
aVfacebook
p1983
aVsocial
p1984
aa(lp1985
Vajax
p1986
aVparis
p1987
ag1460
aVpear
p1988
aVva
p1989
aVpenser
p1990
aVcafe google
p1991
aVoreilles
p1992
ag287
ag172
aa(lp1993
Vcanne cerveau
p1994
aVcomme captures
p1995
aVacheter yeux
p1996
aVinstalle hier
p1997
aVfirefox maraboute
p1998
aVutilite donc
p1999
aVaffichait
p2000
aVedit kno
p2001
aVvoila vais
p2002
ag1518
aa(lp2003
Vall
p2004
ag1663
aVthe symfony
p2005
ag19
ag20
aVevent
p2006
ag23
aVthanks
p2007
aVsymfony day
p2008
aVday event
p2009
aa(lp2010
Vsymbolique 50
p2011
aVpsychologique symbolique
p2012
aVpsychologique
p2013
aVrenards
p2014
ag31
ag1474
aVmillions
p2015
aV50
p2016
aVffcounter
p2017
aV50 millions
p2018
aa(lp2019
Vrecherche prendreuncafe
p2020
aVquestion champs
p2021
aVrecherche sous
p2022
aVoutil etant
p2023
ag1260
ag239
ag1314
aVtester
p2024
aVobjet
p2025
aVadaptation
p2026
aa(lp2027
Vrigolo lire
p2028
aVedit ca
p2029
aVvia glooze
p2030
aVacid2 edit
p2031
aVpub dit
p2032
aVca date
p2033
aVbien rigolo
p2034
aV2005 donc
p2035
aVie8 semble
p2036
aVmauvaise pub
p2037
aa(lp2038
Vplus masochistes
p2039
aVtiger plus
p2040
aVnouvelle visiblement
p2041
aVordinateur livre
p2042
ag907
aVgros
p2043
aVdur
p2044
aVdisque
p2045
aVdisque dur
p2046
aVps3
p2047
aa(lp2048
Vwhich
p2049
ag1477
aVthey
p2050
aVhaving
p2051
aVare you
p2052
aVrunning
p2053
aVtrouble
p2054
aVvi
p2055
aVuser
p2056
aVadmin
p2057
aa(lp2058
g110
aVmozilla firefox
p2059
aVinstalleur
p2060
aVwindows
p2061
aVfirefox windows
p2062
aVinstall_flash_player exe
p2063
aVinstall_flash_player
p2064
ag719
ag1421
aVwine
p2065
aa(lp2066
Vhonteusement
p2067
aVparodie ubuntu
p2068
aVparodie
p2069
aVabusivement caricatural
p2070
aVcaricatural parodie
p2071
aVcaricatural
p2072
aVabusivement
p2073
aVfait rigolote
p2074
aVhonteusement abusivement
p2075
aVevidemment honteusement
p2076
aa(lp2077
Vpersonnage cree
p2078
aVnature humaine
p2079
aVpersonnage lancez
p2080
aVpersonnages differents
p2081
aVadversaire
p2082
aVlabrute idee
p2083
aVcreer beaucoup
p2084
ag28
aVpersonnage
p2085
aVcombattre
p2086
aa(lp2087
Vrepetant derniere
p2088
aVcorrectif
p2089
aVcharriot
p2090
aVcharriot ni
p2091
aVretours charriot
p2092
aVjmf
p2093
aVjmf fourni
p2094
ag67
aVmark
p2095
aVmarks
p2096
aa(lp2097
Voctobre ca
p2098
aVsearch results
p2099
aVother action
p2100
aVbien participe
p2101
aVcollectif miserable
p2102
aVof googlebombing
p2103
aVcondone
p2104
aVcondone the
p2105
aVpractice of
p2106
aVaction that
p2107
aa(lp2108
Vpassablement myope
p2109
aVservice farceur
p2110
aVfarceur passablement
p2111
aVfarceur
p2112
aVubuntu mac
p2113
aVconfond ubuntu
p2114
aVyahoo music
p2115
aVmyope confond
p2116
aVmyope
p2117
aVconfond
p2118
aa(lp2119
Vinternaute stocke
p2120
aVintegralite fichiers
p2121
aVrepertoire temporary
p2122
aVtoujours firefox
p2123
aVclics droit
p2124
aVtotalement
p2125
aVcretin
p2126
aVpubliez
p2127
aVtotalement cretin
p2128
ag29
aa(lp2129
Vmodules posts
p2130
aVapps
p2131
aVdd
p2132
aVfichier apps
p2133
ag515
aVcomposant
p2134
aVapps back
p2135
ag380
ag97
aVback
p2136
aa(lp2137
Vfort edit
p2138
aVenterinons choses
p2139
aVenterinons
p2140
aVimmanquablement note
p2141
ag223
ag870
aVsession
p2142
aVcitoyens
p2143
aVrejoignez
p2144
aVmanifestation
p2145
aa(lp2146
g967
aVplusieurs
p2147
aVquelqu
p2148
aVconnaissance
p2149
aVframework symfony
p2150
aVposte
p2151
aVfortement
p2152
aVaise
p2153
aVexcuser
p2154
aVlangage
p2155
aa(lp2156
Vflash satay
p2157
aVpelletee pelletee
p2158
aVofficial backports
p2159
aVambitiouslemon
p2160
aVsatay
p2161
aVbackports
p2162
ag108
aVconversion
p2163
ag618
aVpelletee
p2164
aa(lp2165
Vbrevetabilite logiciels
p2166
aVprocedure
p2167
aVlogiciels
p2168
aVtexte
p2169
aVadopte
p2170
aVeuropeen
p2171
aVbrevetabilite
p2172
aVeuropeenne
p2173
aVmajorite
p2174
aVeurope
p2175
aa(lp2176
Vfichier
p2177
aVvirtuels
p2178
aVdirective
p2179
aVutilisateurs virtuels
p2180
aVftpasswd
p2181
aVbin false
p2182
aVutilisateurs
p2183
aVetc
p2184
aVpasswd
p2185
aVproftpd
p2186
aa(lp2187
Vgabbly truc
p2188
aVgabbly
p2189
aVgratuit sympa
p2190
aVsympa top
p2191
aVtout javascript
p2192
aVinstantanee tout
p2193
ag975
ag671
aVfil
p2194
aVfil rss
p2195
aa(lp2196
Vdiv id
p2197
aVblockquote
p2198
aVform php
p2199
aVavant validation
p2200
aVsubmit class
p2201
aVbonne mise
p2202
aVsubmit
p2203
aVdiv
p2204
ag97
aVpreview
p2205
aa(lp2206
Vsecurity
p2207
ag208
ag1344
ag1340
ag1341
ag1346
ag1345
ag1343
ag47
ag1342
aa(lp2208
Vsoutien habitants
p2209
aVhabitants londres
p2210
aVhabitants
p2211
aVsoutien
p2212
aVllm
p2213
aVsympathie soutien
p2214
aVpartout toute
p2215
aVvia llm
p2216
aVvraiment cons
p2217
aVllm vraiment
p2218
aa(lp2219
Vsociete starforce
p2220
aVgenre toutes
p2221
aVcopying
p2222
aVanti copie
p2223
aVanti copying
p2224
aVvomissures
p2225
aVvomissures commentatoires
p2226
aVpoursuivre boingboing
p2227
aVsociete
p2228
aVanti
p2229
aa(lp2230
Vreal
p2231
ag1421
aVogg
p2232
aVportfolio
p2233
aVbrilliant
p2234
aVcomparatif
p2235
aVcomparatif formats
p2236
aVthe firefox
p2237
aVformats
p2238
ag618
aa(lp2239
Vblogger navigation
p2240
aVdonf ca
p2241
aVitems flagging
p2242
aVperformant google
p2243
aVitems integration
p2244
aVintegre performant
p2245
aVreader agregateur
p2246
aVdonf
p2247
ag717
aVitems
p2248
aa(lp2249
Vduring
p2250
aVversion support
p2251
aVthe train
p2252
aVsnippets you
p2253
aValready existing
p2254
ag664
ag23
aVby
p2255
aVsyntax
p2256
aVbrush
p2257
aa(lp2258
Vopt_in
p2259
ag99
aVemails
p2260
ag21
ag98
ag23
ag91
aVvalidator
p2261
aVchoices
p2262
ag96
aa(lp2263
Vcpp
p2264
aVkhtmlpart
p2265
aVopenurl
p2266
aVurl url
p2267
aVkhtml_part cpp
p2268
aVkhtml_part
p2269
aVacid2
p2270
aVpatch
p2271
aVkurl
p2272
aVurl
p2273
aa(lp2274
Vgagner
p2275
aVliens
p2276
aVpages
p2277
ag305
aVof users
p2278
aVprecharge
p2279
aVvont
p2280
ag249
aVaccelerator
p2281
aVweb accelerator
p2282
aa(lp2283
g23
ag21
aVenough
p2284
aVit
p2285
ag1102
aVget enough
p2286
aVenough time
p2287
aVdidnt get
p2288
aVswift
p2289
aVdidnt
p2290
aa(lp2291
Vlibrairie
p2292
ag1156
ag1157
ag96
ag1255
aVfb array
p2293
ag97
aVconsole
p2294
aVfb
p2295
aVfirephp
p2296
aa(lp2297
Vdenfert
p2298
aV21 mars
p2299
aVstation rer
p2300
aVmardi 21
p2301
aVmars 2006
p2302
aV2006 21h30
p2303
aV21h30
p2304
aV21h30 station
p2305
aVrer denfert
p2306
aVdenfert rochereau
p2307
aa(lp2308
g275
aVthen
p2309
aVgouvernement
p2310
aVgates
p2311
aVequiper
p2312
aVmicrosoft
p2313
aVyou then
p2314
aVlogiciels libres
p2315
aVlibres
p2316
ag2168
aa(lp2317
Vapplication
p2318
aVmx formitem
p2319
aVformitem
p2320
aVxml
p2321
aVflexbuilder
p2322
aVadobe
p2323
aVmxml
p2324
ag203
aVflex
p2325
aVmx
p2326
aa(lp2327
Vphp4
p2328
ag1584
ag204
ag482
ag199
ag208
ag207
ag201
ag818
aVxmms
p2329
aa(lp2330
Vnon sucage
p2331
aVmeme video
p2332
aValvablog
p2333
aValvablog vote
p2334
aVvia alvablog
p2335
aVvideo delit
p2336
aVsucage microphone
p2337
aVsucage
p2338
aVmicrophone
p2339
aVdelit
p2340
aa(lp2341
Vcouille talent
p2342
aVnon content
p2343
aVrachete
p2344
aVrachete coup
p2345
aVni coups
p2346
aVbouses pars
p2347
aVbouses
p2348
aVtalent ca
p2349
aValbert
p2350
ag1208
aa(lp2351
Vresume
p2352
aVperception
p2353
aVzeldman
p2354
aVresume parfaitement
p2355
aVjeffrey
p2356
aVjeffrey zeldman
p2357
aVparfaitement perception
p2358
aVbillet jeffrey
p2359
aVperception web
p2360
aVzeldman resume
p2361
aa(lp2362
Vrevanche
p2363
aVcroise
p2364
aVcroise doigts
p2365
ag864
ag1971
ag275
aVclavier
p2366
aVgarantie
p2367
aVfonctionnait
p2368
aVhp
p2369
aa(lp2370
Vlisa revisitee
p2371
aVcher photoshop
p2372
aVlisa
p2373
aVmieux moins
p2374
aVsi jeux
p2375
aVmain quand
p2376
aVmeme savent
p2377
aVsavent jouer
p2378
aVjulien dore
p2379
aVukulele
p2380
aa(lp2381
Vinfluence
p2382
aVappel contre
p2383
aVquestion retrouve
p2384
aVappartement six
p2385
aVdiscussion mots
p2386
aVcontre
p2387
aVmerci
p2388
ag88
aVspam
p2389
aVspamclear
p2390
aa(lp2391
Vvoir
p2392
aVetre
p2393
ag354
aVnouvelles
p2394
ag2204
ag1420
aVpue
p2395
aVcapitale
p2396
aVpu
p2397
ag507
aa(lp2398
Vdev
p2399
aVvar www
p2400
ag482
aVwww monprojet
p2401
aVsudo pear
p2402
aVdev monprojet
p2403
aVmonprojet com
p2404
ag1988
ag19
ag1226
aa(lp2405
Vfonds necessaires
p2406
aVreunion fonds
p2407
aVmaladie besoin
p2408
aVnikitin effet
p2409
aVgrave maladie
p2410
aVpu rester
p2411
aVcompte andrei
p2412
aVmeme age
p2413
aVbesoin greffe
p2414
aVappel
p2415
aa(lp2416
Vcrop
p2417
aVmsn yahoo
p2418
aVneolao
p2419
aVstorage
p2420
aVnetwork
p2421
ag2061
aVupload
p2422
ag17
ag23
ag618
aa(lp2423
Vcomme ajax
p2424
ag747
ag1986
ag2277
aVbelle
p2425
ag236
ag238
aVpresence
p2426
aVamazon
p2427
aVa9
p2428
aa(lp2429
Vapres caractere
p2430
aVrigolo livre
p2431
aVtutoweb fonteditor
p2432
aVtutoweb
p2433
aVtrouverez autres
p2434
aVderechef resultat
p2435
aVlivre
p2436
aVcaractere
p2437
aVbitmap
p2438
aVttf
p2439
aa(lp2440
Vjudicieux
p2441
aVmeme page
p2442
aVgoogle news
p2443
aVquoi droit
p2444
aVdroit moment
p2445
aVfrance judicieux
p2446
aVvoici quoi
p2447
aVnews france
p2448
aVchoix illustration
p2449
aVjudicieux choix
p2450
aa(lp2451
Vetant donne
p2452
aVcompletement autant
p2453
aVdonne sauf
p2454
aVgeant redmond
p2455
aVinciter etre
p2456
ag760
ag1133
ag2061
ag1162
aVwindows xp
p2457
aa(lp2458
Vuns regretter
p2459
aVimmuable choses
p2460
aVimmuable
p2461
aVrejouissons
p2462
aVrejouissons solution
p2463
aVretablissant
p2464
aVretablissant odre
p2465
aVfirefox cherchez
p2466
aVete trouvee
p2467
aVarriere historique
p2468
aa(lp2469
Vlags assez
p2470
aVlags
p2471
aVcas temps
p2472
aVpayer cas
p2473
aVlatence apache
p2474
aVlogs moins
p2475
aVlors pics
p2476
aV18h trouve
p2477
aVinverse fichier
p2478
ag1010
aa(lp2479
Vmy promise
p2480
aVnage si
p2481
aVnage
p2482
aVbarre million
p2483
aVmy swimming
p2484
aVvon tetzchner
p2485
aVbest to
p2486
aVmy very
p2487
aVjours suivant
p2488
ag1982
aa(lp2489
Vvenir ca
p2490
aVentreprise fera
p2491
aVcabinets conseil
p2492
aVagences web
p2493
aVlectorat
p2494
aVdestination societes
p2495
aVparis fabien
p2496
ag1397
ag226
ag19
aa(lp2497
Vlaisse lecteur
p2498
aVpanique contre
p2499
aVpoils arrivant
p2500
aVoffre and
p2501
aVexpertises
p2502
aVexpertises trolls
p2503
aVbeneficier offre
p2504
aVcherchait implanter
p2505
aVpari gagne
p2506
aVjuger
p2507
aa(lp2508
Vlinstallation django
p2509
aVmadame monsieur
p2510
aVtenez cest
p2511
aVpublier linstallation
p2512
aVenvironnement virtuel
p2513
aVdjango environnement
p2514
aVakei tenez
p2515
aVcest fou
p2516
aVcompris billets
p2517
ag414
aa(lp2518
g2419
aVmaintenant disponible
p2519
aVedit maintenant
p2520
aVvia xkcd
p2521
aVshirt
p2522
aVxkcd edit
p2523
aVxkcd
p2524
aVneolao via
p2525
aVvia neolao
p2526
aVdisponible shirt
p2527
aa(lp2528
Vcredulite siderante
p2529
aVreader sort
p2530
aVparfois gens
p2531
aVenfer tiens
p2532
aVmilitant
p2533
aVmilitant format
p2534
aVversion bien
p2535
aVefficacement attention
p2536
aVofficiellement libre
p2537
aVtard peux
p2538
aa(lp2539
Vgraphisme jeux
p2540
aVinforme dernieres
p2541
aVcritique differents
p2542
aVmetier dois
p2543
aVcritique
p2544
aVmatiere ergonomie
p2545
aVdifferents gameplays
p2546
aVdernieres avancees
p2547
aVligne moment
p2548
ag1011
aa(lp2549
Vinscrire pouvez
p2550
aVsupport framework
p2551
aVutilisation support
p2552
aVfr subscribe
p2553
aVlist francophone
p2554
aVgooglegroups
p2555
aVgooglegroups com
p2556
aVgroups inscrire
p2557
aVgoogle groups
p2558
ag19
aa(lp2559
Vvide
p2560
aVsynchronisation
p2561
aVbibliotheque
p2562
ag797
aVbibliotheque musicale
p2563
aVmusicale
p2564
aVraconte
p2565
aVgerer bibliotheque
p2566
aVitunes
p2567
aVipod
p2568
aa(lp2569
Vcontacts_development
p2570
aVmigration
p2571
ag840
aVdoe
p2572
ag1031
aVstring
p2573
ag1774
aVstring column
p2574
aVcolumn
p2575
aVcontacts
p2576
aa(lp2577
Vwifi
p2578
ag999
aVimmediatement
p2579
aVcompiler
p2580
aVfreeplayer
p2581
aVversion svn
p2582
aVeffrayer
p2583
aVvideolan
p2584
ag1712
ag1136
aa(lp2585
V868
p2586
aV18pm 00
p2587
aV18pm
p2588
aV00
p2589
aVsm postfix
p2590
aVsm
p2591
aVsmtpd sm
p2592
aV27600
p2593
aVpostfix
p2594
aVsmtpd
p2595
aa(lp2596
Vesperons respectent
p2597
aVligne croire
p2598
aVbots
p2599
aVdecidemment inutilisable
p2600
aVinutilisable notes
p2601
aVcalendrier partage
p2602
aVbeta
p2603
aVcalendar
p2604
aVgoogle calendar
p2605
ag172
aa(lp2606
Vdedibox apres
p2607
aVsable luxe
p2608
aVincident constate
p2609
aVincident
p2610
aVentre 17h
p2611
aVperso comme
p2612
aVreste acceptable
p2613
aV17h 18h30
p2614
aVmidi interruption
p2615
aVexcessivement
p2616
aa(lp2617
Vexemple contourner
p2618
aVpanneau
p2619
ag2603
ag1421
aVdernieres
p2620
aVcompatibilite
p2621
ag575
aVverification compatibilite
p2622
aVverification
p2623
aVextensions
p2624
aa(lp2625
Vfonction parametres
p2626
aVdebogage javascript
p2627
aVutile
p2628
ag770
aVadresse
p2629
ag2169
ag282
ag1422
aVadresse email
p2630
ag1758
aa(lp2631
g2177
aVfichier toto
p2632
aVswf toto
p2633
ag173
aVsh
p2634
aVprojet toto
p2635
ag850
aVtoto swf
p2636
ag1474
ag714
aa(lp2637
Vmariant
p2638
aVmariant live
p2639
aVpp sh0w
p2640
aVpp
p2641
aVrendu hilarant
p2642
aVhilarant libe
p2643
aVhilarant
p2644
aVcru faire
p2645
aVsiecle mariant
p2646
aVtenancier pp
p2647
aa(lp2648
Vtout commence
p2649
aVteasing souhaite
p2650
aVlongue vie
p2651
aVchoses preparation
p2652
aVjolies choses
p2653
aVnotes petit
p2654
aVlabs nouvel
p2655
aVcommence symfony
p2656
aVpetit sinon
p2657
aVjolies
p2658
aa(lp2659
Vautomatique sous
p2660
aVfirefox corrige
p2661
aVimpossible avoir
p2662
aVjour automatique
p2663
aVavoir mise
p2664
aVproblemes impossible
p2665
aVinstallation manuellement
p2666
aVcorrige problemes
p2667
ag104
ag106
aa(lp2668
Vvolontaire limite
p2669
aVinternet volontaire
p2670
aVdesintox aussi
p2671
aVmeme vacances
p2672
aVaussi ferme
p2673
aVjuin reviendu
p2674
aVdesintox
p2675
aVpoils tres
p2676
aVtrackbacks afin
p2677
aVeventuels
p2678
aa(lp2679
Veviter saisie
p2680
ag1230
aVnouveau
p2681
aVbeau
p2682
aVage
p2683
aVclever
p2684
aVclever age
p2685
aVnouveau site
p2686
aVsite clever
p2687
aVbeau nouveau
p2688
aa(lp2689
Vfrancaise si
p2690
aVbon alors
p2691
aVsaura faire
p2692
aVfaire pardonner
p2693
aVnorris facts
p2694
aVbon ferai
p2695
aVconnaissiez peut
p2696
aVfacts
p2697
aValors peut
p2698
aVpeut etre
p2699
aa(lp2700
g618
aVlien
p2701
aVderniers
p2702
aVautomatiquement
p2703
aVautomatique
p2704
ag1230
aVxmlrpc
p2705
aVpostage
p2706
ag67
aVpublics
p2707
aa(lp2708
Vinstallent
p2709
aVinstallent desktop
p2710
aVmacos pouvez
p2711
aVmacos
p2712
aVpratiques installent
p2713
aVtimestamp unix
p2714
aVdesordre
p2715
aVcours force
p2716
aVdesordre timestamp
p2717
ag1337
aa(lp2718
Vvacances
p2719
aVfermes
p2720
aVfermes sages
p2721
aVdodo deconnexion
p2722
aVdodo
p2723
aVvacances dodo
p2724
aVdeconnexion
p2725
aVdeconnexion commentaires
p2726
aVcommentaires fermes
p2727
aVsages
p2728
aa(lp2729
Vca devient
p2730
aVcommons edit
p2731
aVps ca
p2732
aVcote cartographie
p2733
ag382
ag1277
ag265
ag309
aVrequis
p2734
aVflash requis
p2735
aa(lp2736
Vformulaire prevu
p2737
aVformulaire prerempli
p2738
aVtags supplementaires
p2739
aVci
p2740
aVbarre
p2741
ag1752
ag235
ag93
ag67
aVbookmarklet
p2742
aa(lp2743
Vshift guillemet
p2744
aVfenetres
p2745
aVtouches
p2746
aVraccourcis clavier
p2747
ag2366
aVraccourcis
p2748
aVpomme shift
p2749
aValt
p2750
aVshift
p2751
aVpomme
p2752
aa(lp2753
Vouaip confirme
p2754
ag1083
ag1918
aVsous
p2755
ag354
ag1866
ag129
aVsais si
p2756
ag1421
aVsous kde
p2757
aa(lp2758
Vinstant edit
p2759
aVconnaissiez ca
p2760
aVbelle epine
p2761
aVutilisable sous
p2762
aVbaladeur mp3
p2763
aVchance connaissiez
p2764
aVavises banquier
p2765
aVconnaitrait
p2766
aVusb transportable
p2767
aVproduit tenu
p2768
aa(lp2769
Vajax jours
p2770
aVplace genre
p2771
aVplombs jamais
p2772
aVcar chaque
p2773
aVpete plombs
p2774
aVplombs
p2775
aVmieux
p2776
aVos
p2777
ag1986
ag947
aa(lp2778
Vmachineb
p2779
aVjeanpierre machinea
p2780
aVmachinea sudo
p2781
aVmachine
p2782
aVetc rsyncd
p2783
aVrsyncd
p2784
aVmachinea
p2785
aVjeanpierre
p2786
aVrsync
p2787
aVedmond
p2788
aa(lp2789
g201
ag818
aVhd free
p2790
aVmenueditor
p2791
ag482
aVchezmoi hd
p2792
ag1407
ag1405
aVchezmoi
p2793
aVmenu
p2794
aa(lp2795
Vcroit recente
p2796
aVmozilla travers
p2797
aVtres belle
p2798
aVpossible si
p2799
aVcroit
p2800
aVrecente annonce
p2801
aVadobe reversement
p2802
aVannonce ouverture
p2803
aVbientot possible
p2804
ag2323
aa(lp2805
Vthat chew
p2806
aVdespise
p2807
aVusers widely
p2808
aVadvertising cunnington
p2809
aVadvertising
p2810
aVusages web
p2811
aVbons usages
p2812
aVthat
p2813
aVads
p2814
aVads that
p2815
aa(lp2816
Vphoogle
p2817
aVubuntulite
p2818
aVphoogle maps
p2819
ag172
aVmaps api
p2820
aVdonut
p2821
ag618
aVapi
p2822
aVgoogle maps
p2823
aVmaps
p2824
aa(lp2825
Vwsurl
p2826
aVarray float
p2827
aVfloat data
p2828
aVparis france
p2829
aVcle api
p2830
aVgoogle_api_key
p2831
ag2822
ag172
aVdata
p2832
aVfloat
p2833
aa(lp2834
g1779
ag2004
ag19
aVdirectory
p2835
aVtld
p2836
ag1772
aVdomaine tld
p2837
aVsnipeet domaine
p2838
ag152
aVsnipeet
p2839
aa(lp2840
g471
aVinstance
p2841
aVstatic
p2842
ag17
aVuser instance
p2843
ag91
ag98
ag99
ag23
ag2056
aa(lp2844
Vdebian super
p2845
aVjour billet
p2846
aVexploitation etes
p2847
aVetes debian
p2848
aVtest systeme
p2849
aVsuper content
p2850
aVvia tibulle
p2851
aVchanger mise
p2852
aVcgi vie
p2853
ag1493
aa(lp2854
Vaucune chance
p2855
aVdire commentaires
p2856
aVlaissera
p2857
aVlaissera aucune
p2858
aVpeu tout
p2859
aVtrackbacks prennent
p2860
aVconges aussi
p2861
aVprennent conges
p2862
aVrecuperer mieux
p2863
aVspammeurs troller
p2864
aa(lp2865
Vparis 2012
p2866
aVvraiment gagne
p2867
aVhui journee
p2868
aVcontre 14
p2869
aVbrevet
p2870
aVvoix contre
p2871
aVjournee bonnes
p2872
aVaujourd hui
p2873
aVaujourd
p2874
aVhui
p2875
aa(lp2876
g426
ag427
ag428
ag429
ag430
ag431
ag432
ag696
ag697
ag434
aa(lp2877
g1397
ag1457
aVcar
p2878
ag967
aVseul
p2879
ag1774
aVmoins
p2880
aVhi
p2881
aVmoins serieusement
p2882
aVserieusement
p2883
aa(lp2884
Vgarder sous
p2885
aVmind mapper
p2886
aVsympa syndiquer
p2887
aVfichu amazon
p2888
aVframework version
p2889
aVtutoriel zend
p2890
ag1083
aVrecevoir
p2891
aVtres tres
p2892
aVsliderocket
p2893
aa(lp2894
Vdeuxieme
p2895
aVacces internet
p2896
aVfracture numerique
p2897
aVfibre
p2898
aVoptique
p2899
aVdeuxieme initiative
p2900
aVfracture
p2901
aVfibre optique
p2902
ag875
aVnumerique
p2903
aa(lp2904
Vcache triste
p2905
aVpowerball
p2906
aVpowerball curiosite
p2907
aVcommons avant
p2908
aVapres version
p2909
aVbien compris
p2910
aVtriste manquer
p2911
aVimagination point
p2912
aVben vachement
p2913
aVmanquer imagination
p2914
aa(lp2915
g480
ag508
aVart
p2916
ag1276
aVcodes
p2917
aVclip
p2918
aVdeveloppement php
p2919
aVclip art
p2920
aVcodes sources
p2921
ag618
aa(lp2922
Vovh assailli
p2923
aVsolution retablir
p2924
aVtolerable edit
p2925
aVoptimisation structure
p2926
aVdevrais plutot
p2927
aVdevrais
p2928
aVmerci monsieur
p2929
aVsemble salutaire
p2930
ag1458
ag2393
aa(lp2931
V88
p2932
aVutile cadre
p2933
aVpublication code
p2934
aVrapido
p2935
aVplace instance
p2936
aVcode etant
p2937
aVrapido petit
p2938
aVinstallation symfonians
p2939
ag955
aVscreencast
p2940
aa(lp2941
Vratp peu
p2942
aVecho
p2943
aVesc_raw
p2944
aVphp php
p2945
aVarticle
p2946
aVarticle gettitle
p2947
aVecho article
p2948
ag90
ag97
aVgettitle
p2949
aa(lp2950
Vfaits desormais
p2951
aVthunderbird depuis
p2952
aVdesormais client
p2953
aVparfait tant
p2954
aVtant sous
p2955
aVcependant petite
p2956
aVprobleme windows
p2957
aVmessagerie parfait
p2958
ag2755
aVwindows sous
p2959
aa(lp2960
Vreedite version
p2961
aVreedite
p2962
aVplace pantheon
p2963
aVclicktoscan
p2964
aVclicktoscan service
p2965
aVbugs phpeclipse
p2966
aVcarte interactive
p2967
aVcomme jorge
p2968
ag28
ag999
aa(lp2969
Vfichiers
p2970
aVhtml
p2971
ag172
ag1567
ag1753
aVpage html
p2972
ag1470
aVgoogle bookmarks
p2973
ag1756
ag1758
aa(lp2974
g612
aVzwe
p2975
aVmpeg
p2976
aVphpdocumentor
p2977
aVphpdoc
p2978
ag1239
ag1986
aVcms
p2979
ag97
ag618
aa(lp2980
V1121786295
p2981
aV1121786277
p2982
aV1121786288
p2983
aV16
p2984
aVpath
p2985
aVentry
p2986
aV131072
p2987
aV33188
p2988
aV2049
p2989
aV33
p2990
aa(lp2991
Vmeteorites
p2992
aVmeteorites taches
p2993
aVauto marabouter
p2994
aVdebilitudes
p2995
aVsites
p2996
ag1230
ag1753
aVparticulier
p2997
aVpersonnaliser
p2998
aVmarabouter
p2999
aa(lp3000
g1575
ag1470
aVmaintenant
p3001
ag1397
aVete entierement
p3002
aVete
p3003
aVpropose maintenant
p3004
aVextensibilite
p3005
ag906
aVentierement
p3006
aa(lp3007
Vgigaom peu
p3008
aVdns parlent
p3009
aVgigaom
p3010
aVdormais certains
p3011
aVvia gigaom
p3012
aVbon attention
p3013
aVmontages si
p3014
aVavere tout
p3015
aVparler google
p3016
aVdns
p3017
aa(lp3018
Vvantee play
p3019
aVrhfc4
p3020
aVintegralement avant
p3021
aVohhhhh oui
p3022
aVvais
p3023
ag2316
ag102
aVinstaller
p3024
aVjour relirai
p3025
aVrelirai
p3026
aa(lp3027
g431
ag432
ag696
ag433
aVquand
p3028
ag1918
aVgnome plante
p3029
aVquand gnome
p3030
aVplante plante
p3031
aVplante
p3032
aa(lp3033
Vset icones
p3034
aVtheme gtk
p3035
ag73
aVtheme metacity
p3036
ag1918
aVicones
p3037
aVmetacity
p3038
aVgtk
p3039
aVgdesklets
p3040
ag1778
aa(lp3041
Vinstable serveurs
p3042
aVadresse jabber
p3043
aVjabber desormais
p3044
aVim prendreuncafe
p3045
aVorg decidemment
p3046
aVtyphon nouvelle
p3047
aVniko im
p3048
aVjabber org
p3049
aVquitte jabber
p3050
aVjabber
p3051
aa(lp3052
Vsimple hein
p3053
aVoui efficace
p3054
aVrm installsmeg
p3055
aVsmeg donc
p3056
aVsmeg installsmeg
p3057
aVinstallsmeg rm
p3058
aVinstallsmeg smeg
p3059
aVinstallsmeg sudo
p3060
aVsmeg
p3061
aVinstallsmeg
p3062
aa(lp3063
Videe consiste
p3064
aVtaf aujourd
p3065
aVtaf
p3066
ag1457
aVpc
p3067
ag457
aVpc inpact
p3068
aVinpact
p3069
ag2015
aVbill
p3070
aa(lp3071
g715
aVusr bin
p3072
ag2177
aVeclipse_home
p3073
aVusr
p3074
aVbin
p3075
aVrepertoire
p3076
aVopt eclipse
p3077
ag1469
ag1268
aa(lp3078
Vshamir
p3079
aVdoit avoir
p3080
aVavoir telephone
p3081
aVtraine via
p3082
aVcarving image
p3083
aVsonne discontinuer
p3084
aVimage
p3085
aVseam carving
p3086
aVseam
p3087
aVcarving
p3088
aa(lp3089
Vcapture
p3090
aVpng
p3091
aVimport
p3092
aVzone
p3093
aVsec
p3094
aVpause
p3095
aVext
p3096
aVimport pause
p3097
aVecran moyen
p3098
aVimagemagick
p3099
aa(lp3100
Vcopain client
p3101
aVfrancisee
p3102
aVvia pascal
p3103
aVfrancisee celebre
p3104
aVversion francisee
p3105
aVchevrel
p3106
aVnavigateur libre
p3107
aVpascal chevrel
p3108
aVmozilla europe
p3109
aVmessagerie dispos
p3110
aa(lp3111
Vtrouve systeme
p3112
aVformat nom
p3113
aVinstant malgre
p3114
aVouvrir compte
p3115
aVutilise furur
p3116
aVsysteme filtres
p3117
aVinterface entierement
p3118
aVideal ailleurs
p3119
aVah oubliais
p3120
aVwebmail
p3121
aa(lp3122
Vcache local
p3123
aVcache html
p3124
aVxml devrait
p3125
aVcomportant gestion
p3126
aVbouton purger
p3127
ag104
ag106
ag102
aVpurger
p3128
aVcache
p3129
aa(lp3130
g547
aV255
p3131
aVvarchar
p3132
aVvarchar 255
p3133
ag1575
aVpost_id
p3134
ag544
aVsftest
p3135
ag19
ag2136
aa(lp3136
V8015
p3137
aVcontent 48
p3138
aV8015 3263
p3139
ag1230
ag680
ag501
aVgeo
p3140
aVname geo
p3141
aVmeta
p3142
aVmeta name
p3143
aa(lp3144
Veasynote
p3145
aVsi possible
p3146
aVcarte
p3147
aVinspiron
p3148
aVcahier
p3149
aVcharges
p3150
aVcahier charges
p3151
aVdell inspiron
p3152
ag662
aVprix
p3153
aa(lp3154
g1202
aVimages
p3155
aVeffectue
p3156
ag172
aVmot ubuntu
p3157
aVcommandes
p3158
aVubuntu google
p3159
ag239
aVubuntu recherche
p3160
ag47
aa(lp3161
Vrajouter page
p3162
aVlecteurs gonfles
p3163
aVpage entiere
p3164
aVplait enormement
p3165
aVligne 74
p3166
aVphp pourriez
p3167
aVcomprendre quoi
p3168
aVsvp page
p3169
aVmeme lecteurs
p3170
aVpourriez faire
p3171
aa(lp3172
g612
aVtags php
p3173
aVsql framework
p3174
aVseagull
p3175
aVprado
p3176
ag618
aVcreole
p3177
ag97
aVphp framework
p3178
ag1397
aa(lp3179
g426
ag427
ag428
ag429
ag430
aVapres
p3180
aVpeste
p3181
aVcholera
p3182
aVapres peste
p3183
aVpeste cholera
p3184
aa(lp3185
Vmode
p3186
aVsavent
p3187
aVconfidentialite
p3188
aVcensure
p3189
aVcensure mode
p3190
aVmaman
p3191
aVmaman exige
p3192
aVexige
p3193
aVmode maman
p3194
aVexige confidentialite
p3195
aa(lp3196
g172
ag2823
aVgeolocalisation
p3197
aV05
p3198
aVroutiere
p3199
aVcarte routiere
p3200
ag2824
ag3147
aVvue
p3201
aVgeourl
p3202
aa(lp3203
Vlast_name
p3204
aVend
p3205
aVtd
p3206
ag680
aVplabel
p3207
aVplabel for
p3208
aVcompany
p3209
aVcompanies
p3210
ag2576
ag95
aa(lp3211
Vi18nsubdomainfilter
p3212
aVlangue courante
p3213
aVenabled_cultures sfconfig
p3214
aVclass i18nsubdomainfilter
p3215
aVenabled_cultures
p3216
aVsymfonians
p3217
aVcourante
p3218
aVhost_parts
p3219
aVcontext
p3220
aVsubdomain
p3221
aa(lp3222
g2589
aVminute
p3223
aVbuffer
p3224
aVreel
p3225
aVtemps reel
p3226
ag511
ag1401
ag2017
aVcompteur
p3227
aVfp
p3228
aa(lp3229
Vgraphisme
p3230
aVtags webdesign
p3231
ag2438
ag108
aVsummer refresh
p3232
aVpotrace
p3233
aVsummer
p3234
aVrefresh
p3235
aVextend
p3236
ag618
aa(lp3237
Vligne mire
p3238
aVmail jerome
p3239
aVlignee
p3240
aVmicrosoft systemes
p3241
aVsystemes
p3242
aVloi
p3243
aVstylo
p3244
aVperuvien
p3245
ag2168
aValejandro
p3246
aa(lp3247
Vcurieux installer
p3248
aVscript tres
p3249
aVetes train
p3250
aVlien ci
p3251
aVpermet fois
p3252
aVdessous barre
p3253
aVelements arbre
p3254
aVrollover differents
p3255
aVdeveloppeurs web
p3256
ag617
aa(lp3257
Vvolume ventes
p3258
aVpomme serieusement
p3259
aVmade by
p3260
aVos made
p3261
aVsachant google
p3262
aVcreateurs
p3263
aVcertaine pomme
p3264
aVcreateurs applications
p3265
aVvia blogueur
p3266
aVoriente telephonie
p3267
aa(lp3268
Vtres connu
p3269
aVversion disponible
p3270
aVsurpris bonne
p3271
aVbonne stabilite
p3272
aVarchive programme
p3273
aVapprendre future
p3274
aVftp tres
p3275
ag2183
aVfilezilla
p3276
ag797
aa(lp3277
Vfail2ban
p3278
aVsshd_config
p3279
aVnoexec
p3280
aV12345
p3281
aVprogramme
p3282
ag860
aVtmp
p3283
aVport
p3284
aVchkrootkit
p3285
ag1407
aa(lp3286
Vmeme hote
p3287
aVca craint
p3288
aVgelabale dit
p3289
aVgelabale
p3290
aVsoir doyenne
p3291
aVdoyenne
p3292
aVoui rien
p3293
ag2394
ag2683
aVans
p3294
aa(lp3295
Videas
p3296
aVfait ca
p3297
aVideas don
p3298
aVbeau encore
p3299
aVca avance
p3300
aValbum tres
p3301
aVdrolement documentation
p3302
aVbras sinon
p3303
aVencore poils
p3304
aVdernier
p3305
aa(lp3306
Vcru bon
p3307
aVinspecteur knox
p3308
aVpeu
p3309
aVcause
p3310
aVquil
p3311
ag955
ag414
aVjavais
p3312
aVdun
p3313
aVinspecteur
p3314
aa(lp3315
Vwhittle
p3316
aVby fabien
p3317
aVstefan
p3318
aVdustin
p3319
aVdustin whittle
p3320
aVwhittle edit
p3321
aVsymfony by
p3322
ag19
ag23
ag2255
aa(lp3323
Vbien sympathique
p3324
aVlemmings
p3325
aVblog lemmings
p3326
aVtaper vieux
p3327
aVhasard blog
p3328
aVtrouve completement
p3329
aVsympathique grace
p3330
aVflashback bien
p3331
aVentierement html
p3332
aVbillet trouve
p3333
aa(lp3334
Vgateau transition
p3335
aVtemps perdre
p3336
aVdeposes etats
p3337
aVchercher brevets
p3338
aVfirefox semble
p3339
aVgenerateur image
p3340
aVgoogle patents
p3341
aVtemps manque
p3342
aVvrac temps
p3343
aVunis ironie
p3344
aa(lp3345
Vpourquoi certains
p3346
aVamusait
p3347
ag476
aVaccueil
p3348
ag785
aVmsn
p3349
aVcul
p3350
ag283
aVrequetes
p3351
ag172
aa(lp3352
g428
ag429
ag430
ag431
ag432
ag696
ag433
aVeviter citer
p3353
ag434
aVpriceless
p3354
aa(lp3355
Vdeposiez trombines
p3356
aVdeposiez
p3357
aVgeolocalisation communautaire
p3358
aVcomme celle
p3359
aVmembres meme
p3360
aVmeme communaute
p3361
aVdecouvert chez
p3362
aVcompte prendre
p3363
aVfirefox juste
p3364
ag287
aa(lp3365
Vyou can
p3366
ag255
ag21
ag721
ag23
ag2573
aVbar
p3367
aVfoo
p3368
aVphpsh
p3369
ag97
aa(lp3370
Vsi utilises
p3371
aVmuhrc gz
p3372
aVmuh muhrc
p3373
aVclient irc
p3374
aVbouncer
p3375
aVutilises
p3376
aVmuhrc
p3377
ag644
aVirc
p3378
aVmuh
p3379
aa(lp3380
Vrecu
p3381
ag1027
aVbanlieue
p3382
aVregion
p3383
aVdailleurs
p3384
aVaujourdhui
p3385
ag1067
aVlouer
p3386
aVjai dailleurs
p3387
aVmontpellier
p3388
aa(lp3389
Vopus
p3390
aVbonheur tout
p3391
aVtv site
p3392
aVquebecois
p3393
aVquebecois tout
p3394
aVvideos mourir
p3395
aVtetes claques
p3396
aVhumour quebecois
p3397
aVsite humour
p3398
aVclaques
p3399
aa(lp3400
Vgrace
p3401
aVnecessite
p3402
ag945
aVanalyse
p3403
ag3155
aVschneidermann
p3404
aVplus nouveau
p3405
ag318
ag944
aVarret images
p3406
aa(lp3407
Vftp emails
p3408
aVmo espace
p3409
aVannoncant
p3410
aVannoncant free
p3411
aVjusqu freeonrails
p3412
aVmensuelle
p3413
ag840
aVjusqu
p3414
aVhebergement
p3415
aVfausse
p3416
aa(lp3417
Vdesign
p3418
aVmenus
p3419
aVfonts
p3420
aVfractales
p3421
aVcomputer
p3422
aVxhtml quicktime
p3423
aVxhtml
p3424
ag618
aVquicktime
p3425
ag1268
aa(lp3426
Vtesting framework
p3427
aVphp unittesting
p3428
ag3173
aVunit
p3429
aVtesting
p3430
ag23
aVunittesting
p3431
aVphpunit
p3432
ag97
ag618
aa(lp3433
Vproductivity francais
p3434
aVproductivite reponse
p3435
aVgratuite utilisable
p3436
aVtelechargement commande
p3437
aVstable performante
p3438
aVrendement maximum
p3439
aVutilisable fiable
p3440
aVinstallation gratuits
p3441
aVtous ubuntu
p3442
aVquestion sous
p3443
aa(lp3444
g426
ag427
ag428
ag429
ag430
ag431
ag432
ag696
ag697
ag434
aa(lp3445
Vedit 10
p3446
aVphotos sidebar
p3447
aVtelechargement plugin
p3448
aVzip edit
p3449
ag61
ag2388
aVzip
p3450
ag1520
aVwidget
p3451
aVflickrfeed
p3452
aa(lp3453
Vreflexion
p3454
aVetude
p3455
aVpresident
p3456
ag2168
ag2315
aVnationale
p3457
ag2316
aVassemblee nationale
p3458
aVassemblee
p3459
aVdeputes
p3460
aa(lp3461
Vdurs 160go
p3462
aVcouronne
p3463
aV160go second
p3464
aV160go
p3465
aVchangement serveur
p3466
aVdedibox autre
p3467
aVdedibox configuree
p3468
aVcouronne succes
p3469
aVautre
p3470
aVdedibox
p3471
aa(lp3472
Vtoujours mise
p3473
aVvolkswagen
p3474
aVblog volkswagen
p3475
aValvasoft blog
p3476
aValvasoft
p3477
aVtdi echappe
p3478
aVhumour publicites
p3479
aVtdi
p3480
aVsucces humour
p3481
aVvolkswagen toujours
p3482
aa(lp3483
g426
ag427
ag428
ag429
ag430
ag431
ag432
ag696
ag697
ag434
aa(lp3484
Vflickr account
p3485
aVsafe
p3486
aVim
p3487
aVlinks
p3488
ag22
aVaccount
p3489
aVdoesnt
p3490
ag1982
ag23
ag578
aa(lp3491
Vgnome2
p3492
aVgnome2 rhythmbox
p3493
aVstatus tar
p3494
aVrhythmbox plugins
p3495
aVstatus
p3496
aVgajim status
p3497
aVlastrhythm
p3498
aVapplet
p3499
aVgajim
p3500
aVrhythmbox
p3501
aa(lp3502
Vpeople to
p3503
aVusers are
p3504
aVlinus
p3505
aVkde linus
p3506
aVutilisateurs idiots
p3507
ag2285
ag21
ag1918
ag1866
aVidiots
p3508
aa(lp3509
Vvista
p3510
aVvia reddit
p3511
aVwindows vista
p3512
aVmicrosoft comment
p3513
aVreddit ergonomie
p3514
aVergonomie vue
p3515
aVsupprimer raccourci
p3516
aVraccourci windows
p3517
aVcomment supprimer
p3518
aVvue microsoft
p3519
aa(lp3520
Vpartenariat
p3521
aVaccessible exhaustif
p3522
aVsi interessez
p3523
ag2436
aVruby rails
p3524
ag671
ag465
aVouvrage
p3525
ag840
ag1774
aa(lp3526
Vnew imageloader
p3527
aVnew object
p3528
aVimageloader _level0
p3529
aVvar imageloader
p3530
aVdebug false
p3531
ag98
aVol
p3532
ag483
aVimageloader
p3533
aVco
p3534
aa(lp3535
Vquoi combinaison
p3536
aVhistorique tandis
p3537
aVroutine quoi
p3538
aVroutine
p3539
aVpratique navigateur
p3540
aVencore decouvert
p3541
aVsobre efficace
p3542
aVtandis inverse
p3543
ag391
aVmolette
p3544
aa(lp3545
g508
ag1260
ag22
ag612
aVcategories javascript
p3546
ag23
ag17
ag21
ag269
ag277
aa(lp3547
Vretour ligne
p3548
ag1574
aVcrois
p3549
aVlendemain
p3550
aVenregistrer
p3551
ag1971
aVlendemain cuite
p3552
aVcuite
p3553
aVprendre cafe
p3554
ag287
aa(lp3555
Vreecritures
p3556
aVprendre nouveau
p3557
aVregles reecritures
p3558
aVanciennes urls
p3559
ag586
ag1971
aVanciennes
p3560
ag1337
aVurls
p3561
aVok
p3562
aa(lp3563
Vbox 360
p3564
aVfaisant classique
p3565
aVface
p3566
aVbox
p3567
aVplaystation
p3568
aVsony
p3569
aVsony playstation
p3570
aVrevolution
p3571
aVnintendo
p3572
aVnintendo revolution
p3573
aa(lp3574
Vbien gaule
p3575
aVameliore voici
p3576
aVvraiment reussi
p3577
aVpartie jesus
p3578
aVillusions optiques
p3579
ag47
aVbadger badger
p3580
aVdevelopper developper
p3581
aVdevelopper
p3582
aVbadger
p3583
aa(lp3584
Vetre signale
p3585
aVbien planning
p3586
aVsatisfaits
p3587
aVbien projet
p3588
aVsatisfaits code
p3589
aVvanter qualites
p3590
aVqualites humaines
p3591
aVagit mener
p3592
ag173
aVequipe
p3593
aa(lp3594
Vutilisation version
p3595
aVbugs affichage
p3596
aVplateformes dont
p3597
aVsysteme enfin
p3598
aVerreur peut
p3599
ag999
ag92
ag1892
ag50
aVopera
p3600
aa(lp3601
Veventuellement commander
p3602
aVcommander dvd
p3603
aVfaudra eventuellement
p3604
aVvia david
p3605
aVvoir toute
p3606
aVligne apres
p3607
aVsoir ca
p3608
aVdavid voir
p3609
aVurgence si
p3610
aVtoute urgence
p3611
aa(lp3612
Vsincerement connais
p3613
aVsincerement
p3614
aVtable periodique
p3615
aVsurtout repondu
p3616
aVvraiment sincerement
p3617
aVperiodique elements
p3618
aVperiodique
p3619
aVelements coeur
p3620
aVfait mal
p3621
aVrepondu vraiment
p3622
aa(lp3623
g483
aVhref
p3624
aVbehaviour
p3625
aVmonlien
p3626
aVfunction
p3627
aVscrollto
p3628
aVfunction element
p3629
aVancre
p3630
aVrules
p3631
aVelement
p3632
aa(lp3633
Vnotez pouvez
p3634
ag1339
ag1133
ag1407
aVrecuperez
p3635
aVsshfs
p3636
aVlecteur reseau
p3637
aVmacfuse sshfs
p3638
aVmacfuse
p3639
aVmacfusion
p3640
aa(lp3641
Vperl libcrypt
p3642
aVcheckgmail tar
p3643
aVsimple 06
p3644
aVlibcrypt
p3645
aVopt checkgmail
p3646
aVcrypt simple
p3647
aVcrypt
p3648
ag72
aVperl
p3649
aVcheckgmail
p3650
aa(lp3651
Vvoir photos
p3652
aVphotos realisees
p3653
aV30mm
p3654
aV450d
p3655
aV55
p3656
aV250mm
p3657
aV55 250mm
p3658
aVsigma
p3659
ag414
aVobjectif
p3660
aa(lp3661
Vsimple meme
p3662
aVveritable installeur
p3663
ag61
ag110
ag225
ag1574
aVdevrait
p3664
ag72
ag107
aVmozilla plugins
p3665
aa(lp3666
g433
ag431
ag434
ag1277
aVgrand
p3667
ag1459
aVplus grand
p3668
aVgrand play
p3669
aVsir
p3670
aVplay sir
p3671
aa(lp3672
g971
ag1892
ag1958
aVlayout
p3673
ag3051
aVphoto
p3674
aVradio
p3675
aVnokia
p3676
ag1239
ag618
aa(lp3677
Vedit ajout
p3678
aVmerci xdebug
p3679
ag199
ag97
ag2603
aVphp5
p3680
ag19
aVpecl
p3681
ag2388
aVxdebug
p3682
aa(lp3683
Vchez thierry
p3684
ag265
ag1010
ag1062
ag2168
aVveulent
p3685
ag2313
aVpourquoi
p3686
aVdrm pourquoi
p3687
aVdrm
p3688
aa(lp3689
Vvillers
p3690
aVmains yahoo
p3691
aVdirait muriel
p3692
ag747
ag2776
ag728
aVroute
p3693
aVdessiner comme
p3694
aVdessiner
p3695
ag172
aa(lp3696
Vkompose meme
p3697
aVkubuntu sudo
p3698
aVkde installer
p3699
aVdecouvrir kompose
p3700
aVsous kubuntu
p3701
aVinstaller rien
p3702
ag208
ag207
ag818
aVkompose
p3703
aa(lp3704
g680
aVarray name
p3705
ag21
aVwithvalue
p3706
aVwithname
p3707
aVnew amazon_simpledb_model_replaceableattribute
p3708
aVamazon_simpledb_model_replaceableattribute
p3709
aVproduct
p3710
aVsweater
p3711
ag96
aa(lp3712
g430
ag2755
ag2061
aVbref
p3713
aVsous windows
p3714
aVpassage
p3715
aVpaf
p3716
aVwindows paf
p3717
aVpassage sous
p3718
aVbref passage
p3719
aa(lp3720
Vtraverse juste
p3721
aVpetite
p3722
ag1462
aVdevant
p3723
aVpoil
p3724
aVvoiture
p3725
aVboule
p3726
aVpetite boule
p3727
aVjuste devant
p3728
aVboule poil
p3729
aa(lp3730
g618
ag2273
aVnews
p3731
aVamp
p3732
aVtitle
p3733
aVurlencode
p3734
aVutf8_encode
p3735
ag517
aVglobals news
p3736
aVsummary
p3737
aa(lp3738
V10 mode
p3739
aVfonctionnalite dispo
p3740
aVvia murray
p3741
aVsidebar obtenue
p3742
aVmouture gnome
p3743
aVbien parti
p3744
aVnautilus 10
p3745
ag1918
aVhierarchique
p3746
aVfonctionnalite
p3747
aa(lp3748
Vetapes
p3749
aVdepots universe
p3750
aVgraphes
p3751
aVsecurite
p3752
aVetapes configuration
p3753
aVassistant
p3754
aVbase donnees
p3755
aVdonnees cacti
p3756
ag152
aVcacti
p3757
aa(lp3758
Vrhythmbox suffit
p3759
aVliens contextuels
p3760
aVfois liste
p3761
aVproposent telechargement
p3762
aVtelechargement
p3763
aVmusique
p3764
aVgreffon
p3765
aVcatalogue
p3766
ag3501
aVjamendo
p3767
aa(lp3768
Vextreme
p3769
aVinterfacelift
p3770
aVstyle architecture
p3771
ag249
ag23
aVrest
p3772
ag618
aVwallpaper
p3773
ag486
aVcolor
p3774
aa(lp3775
Vlivrera
p3776
aVdriver proprietaire
p3777
aVcollaboration equipe
p3778
aVfaon ravi
p3779
aVtemeraire ainsi
p3780
aVlivrera cd
p3781
aVcd
p3782
ag797
aVfaon
p3783
aVcompiz
p3784
aa(lp3785
Vflag of
p3786
aVfast food
p3787
aVsometimes the
p3788
aVthe french
p3789
aVamerican
p3790
aVflag
p3791
aVat
p3792
ag22
aVfrench
p3793
ag23
aa(lp3794
Vacceder mozilla
p3795
aVuseragent modifiez
p3796
aVuseragent vendorsub
p3797
aVchaine useragent
p3798
aVpaquet firefox
p3799
aVerreur invitant
p3800
ag1117
ag1891
ag1421
aVuseragent
p3801
aa(lp3802
Vjeuxvideopc
p3803
aVpodcasts
p3804
aVjeuxvideopc ca
p3805
aVcomme fonds
p3806
aVsonores
p3807
aVsonores podcasts
p3808
aVcompositions utilisees
p3809
aVfonds sonores
p3810
aVpodcasts jeuxvideopc
p3811
aVcertaines compositions
p3812
aa(lp3813
Vplus enthousiasmant
p3814
aVmultiframeworkophile lunatique
p3815
aVgeek guitariste
p3816
aVmultiframeworkophile
p3817
aVblogoscene ca
p3818
aVjuste note
p3819
aVlunatique surdoue
p3820
aVchromatiques sergey
p3821
aVcest quand
p3822
aVsurdoue
p3823
aa(lp3824
Vrelirai billets
p3825
aVquestion agit
p3826
aVsemaine seulement
p3827
aVposter verifirai
p3828
aVdeja circulation
p3829
aVhypothese fake
p3830
aVsurtout apple
p3831
aVpenche hypothese
p3832
ag2777
aVtroublant
p3833
aa(lp3834
g2194
aVappartement
p3835
ag3731
aVprovoque
p3836
aVprovoque inondation
p3837
aVnews yahoo
p3838
aVinondation
p3839
aViguane
p3840
ag237
aVitem
p3841
aa(lp3842
Vetre loupe
p3843
aVloupe
p3844
aVportes rends
p3845
aVperfs air
p3846
ag864
ag104
ag106
ag785
aVsorti
p3847
aVcalendriers
p3848
aa(lp3849
Vappreciations autres
p3850
aVappreciations
p3851
aVetc participant
p3852
aVessayer part
p3853
aVevolue fonction
p3854
aVrails fait
p3855
aVredigent
p3856
ag845
aVmembres
p3857
aVscoopeo
p3858
aa(lp3859
Vvia biologeek
p3860
aVgrenshad
p3861
aVcommune communaute
p3862
aVnet
p3863
ag47
ag2194
aVfrancophone
p3864
aVtitus
p3865
aVplanete
p3866
ag579
aa(lp3867
Vtemplate engines
p3868
aVtitrez
p3869
aVsous titrez
p3870
aVtbsooo
p3871
aVengines
p3872
ag97
aVpresentation
p3873
ag152
ag983
ag618
aa(lp3874
Vacid2 excellente
p3875
aVdispo nanti
p3876
aVpasserait
p3877
aVgtd
p3878
aVstockage acces
p3879
aVos deja
p3880
ag760
ag3722
ag2603
aVhack
p3881
aa(lp3882
Vremouk tres
p3883
aVcomme remouk
p3884
aVheritage face
p3885
aVmy heritage
p3886
aVrecognition bon
p3887
aVperformances my
p3888
aVsatisfait performances
p3889
aVtous coups
p3890
aVheritage
p3891
aVrecognition
p3892
aa(lp3893
Vbillet cours
p3894
aViiiiii
p3895
aVgestion cafe
p3896
aVsexologue
p3897
aVrigolo 2005
p3898
ag781
ag239
ag287
aVjean
p3899
aVmaurice
p3900
aa(lp3901
Vbon
p3902
aVlignes
p3903
aVquelques lignes
p3904
aVbon reveillon
p3905
aVreveillon
p3906
aVrares
p3907
aVrares lisent
p3908
aVreveillon rares
p3909
aVlisent quelques
p3910
aVlisent
p3911
aa(lp3912
Vlist
p3913
ag2177
aVsources
p3914
ag2184
aVediter fichier
p3915
aVdepots
p3916
aVediter
p3917
aVgedit
p3918
aVsources list
p3919
ag3061
aa(lp3920
Vnotes tres
p3921
aVbreezy espere
p3922
aVapprecieront efforts
p3923
aVapprecieront
p3924
aVmeme contribue
p3925
ag1029
ag47
aVploum
p3926
aVjanvier
p3927
ag2436
aa(lp3928
Vdocuments html
p3929
aVrespecteux
p3930
aVrespecteux standards
p3931
aVnombre fichiers
p3932
aVdevrait serieusement
p3933
ag173
aVsolution
p3934
aVfuture
p3935
ag1260
aVfuture version
p3936
aa(lp3937
Veffectuant don
p3938
aVqualite services
p3939
aVaide via
p3940
aVreconnaissant travail
p3941
aVubuntu besoin
p3942
aVmontrer point
p3943
aVmeme depassee
p3944
aVcharge serveurs
p3945
ag2183
aV2000
p3946
aa(lp3947
Vtarget target
p3948
ag90
ag99
ag3429
aVtrans
p3949
aVi18n strings
p3950
aVtrans unit
p3951
aVstrings
p3952
ag1651
aVi18n
p3953
aa(lp3954
Vopen
p3955
aVstack
p3956
ag1714
aVstack trace
p3957
aVexception page
p3958
aVstandard exception
p3959
aVtxmt
p3960
aVfile
p3961
ag23
ag21
aa(lp3962
Vstable si
p3963
aVvisiblement personne
p3964
aVdistrowatch premiere
p3965
aVayuka edit
p3966
ag2276
ag3763
aVofficielle
p3967
aVbreezy
p3968
ag3583
aVbreezy badger
p3969
aa(lp3970
g2813
ag2285
aVif
p3971
aVwill
p3972
ag1459
aVif you
p3973
ag1162
ag2457
aVyou play
p3974
ag255
aa(lp3975
Vhelas
p3976
aVdirect
p3977
aVvisionner
p3978
aVlien direct
p3979
ag1280
ag1279
ag1281
ag732
aVvideo sinon
p3980
ag731
aa(lp3981
Vvers environnement
p3982
aVutiliser disponible
p3983
aVenvironnement libre
p3984
aVnotes demandes
p3985
aVdistribution facile
p3986
aVtemps billet
p3987
aVordinateur sentira
p3988
aVstickers wiki
p3989
aVenfin
p3990
aVstickers
p3991
aa(lp3992
Vsingulier
p3993
aVparfaitement droit
p3994
aVrecopie
p3995
aVpremiere personne
p3996
aVpersonne singulier
p3997
aVbillet
p3998
aVcc
p3999
ag309
aVlicence cc
p4000
aVnexen
p4001
aa(lp4002
Vsalaire
p4003
ag1779
aVrelational mapping
p4004
aVboot up
p4005
aVup manager
p4006
aVobject relational
p4007
aVmanager
p4008
ag618
aVmapping
p4009
aVobject
p4010
aa(lp4011
g1714
aVcool
p4012
aVsqlite
p4013
ag3096
aVsupport in
p4014
aVsupport
p4015
aVprometteuse
p4016
aVtres prometteuse
p4017
aVmegayeah
p4018
aVin ext
p4019
aa(lp4020
Vwindow
p4021
ag225
aVplugin generator
p4022
aVg_sdisablewgacheck
p4023
aVboing
p4024
aVg_sdisablewgacheck all
p4025
aVwindow g_sdisablewgacheck
p4026
aVfirefox search
p4027
aVsearch plugin
p4028
ag2059
aa(lp4029
Vcomme faut
p4030
aVfois sachons
p4031
aVbien nefaste
p4032
aVprocessus autoeradication
p4033
aVdemarrage demander
p4034
aVsachons reconnaitre
p4035
aVspyware bien
p4036
aVpropre aveu
p4037
ag2313
aVspyware
p4038
aa(lp4039
Vlinux adobe
p4040
aVsolaris linux
p4041
aVubuntu seulement
p4042
aVpatienter attendant
p4043
aVsi surf
p4044
aVpermet installer
p4045
ag275
ag671
aVie ie
p4046
aVie
p4047
aa(lp4048
g3681
ag3072
ag482
aVperformances applications
p4049
aVapxs2
p4050
ag3074
ag3680
ag97
aVapache2
p4051
aVapc
p4052
aa(lp4053
Vdefines
p4054
aVenvironment based
p4055
aVfriendly desktop
p4056
ag1866
ag88
aVattribute
p4057
ag2321
ag1443
aVgames
p4058
ag618
aa(lp4059
Vmaintenant largement
p4060
aVphp5 lieu
p4061
aVdepassee maintien
p4062
aVmalchance
p4063
aVchouette initiative
p4064
aVgrande envergure
p4065
aVprojets
p4066
aVannee
p4067
aVannoncee
p4068
ag2328
aa(lp4069
g428
ag429
ag430
ag431
ag432
ag426
ag434
ag3294
aVtrente
p4070
aVtrente ans
p4071
aa(lp4072
Vdmitry
p4073
aVproposee dmitry
p4074
aVretenue celle
p4075
aVhebergeurs developpeurs
p4076
aVtres attendue
p4077
aVdepot cvs
p4078
aVcombien temps
p4079
aVdmitry stogov
p4080
aVnoms namespaces
p4081
aVdeveloppeurs
p4082
aa(lp4083
g98
ag1314
aVprenom
p4084
aVhref onclick
p4085
ag3624
aVeffect
p4086
aVonclick
p4087
aVnew effect
p4088
aVonclick new
p4089
aVmytext
p4090
aa(lp4091
Vtour presidentielles
p4092
aVargh apparemment
p4093
aVbricoleurs tres
p4094
aVultime manifester
p4095
aVchats neolao
p4096
aVtitres srt
p4097
aVborgne
p4098
aVborgne passe
p4099
aVjoie notes
p4100
aVbricoleurs
p4101
aa(lp4102
Vsortie contrairement
p4103
aVcontrairement numero
p4104
aVautant devoir
p4105
aVamd64
p4106
aVunstable ubuntu
p4107
ag3782
ag1087
aVlive
p4108
ag3968
aVlive cd
p4109
aa(lp4110
Vvia yahoo
p4111
aVfanatiques
p4112
aVyahoo news
p4113
aVbien scene
p4114
aVgoogle imagine
p4115
aVappeller rejeton
p4116
aVose appeller
p4117
aVnews parents
p4118
aVfanatiques ose
p4119
aVrejeton google
p4120
aa(lp4121
Veviter plantages
p4122
ag2680
aVeviter spam
p4123
aVeviter telephone
p4124
ag1797
ag88
ag1010
aVtemps changent
p4125
aVchangent
p4126
aVchangent via
p4127
aa(lp4128
g21
aVsudo opt
p4129
aVlocal apache2
p4130
ag4051
ag482
ag1030
aVmacports
p4131
aVmysql5
p4132
ag1469
aVopt local
p4133
aa(lp4134
Vnon deja
p4135
aVsemantique hein
p4136
aVplus exhaustivement
p4137
aVprojet hebergee
p4138
aVcoder plugins
p4139
aVhebergee chez
p4140
aVtant balisage
p4141
aVnaze si
p4142
ag2755
aVtitres
p4143
aa(lp4144
g1714
ag476
ag97
ag474
ag470
ag1377
ag23
ag680
aVfilter
p4145
aVbookmark
p4146
aa(lp4147
Voccasion projette
p4148
aVhalte capitale
p4149
aVnitwoh giz404
p4150
aVkno david
p4151
aV19h
p4152
ag1987
ag1460
aVpub
p4153
aVrendez
p4154
aValliance
p4155
aa(lp4156
Vresultat courses
p4157
aVsi non
p4158
aVcertains ca
p4159
aVcliquez donc
p4160
aVsi oui
p4161
aVchapi
p4162
aVnicos va
p4163
aVcliquez
p4164
aVnicos
p4165
aVinfluent
p4166
aa(lp4167
g108
aVforms
p4168
aVsoftware
p4169
aV2d physics
p4170
aV2d
p4171
aVphysics
p4172
aVwink
p4173
ag618
ag23
ag1631
aa(lp4174
Vfun photo
p4175
aVvia transforme
p4176
aVthe open
p4177
aVmusic encyclopedia
p4178
aVfaq
p4179
ag618
aVmusipedia
p4180
aVwiktionnaire
p4181
aVdictionnaire faq
p4182
aVdictionnaire
p4183
aa(lp4184
Vagregateur lire
p4185
aVhab commentaires
p4186
aVimaginer ca
p4187
aVcomme doute
p4188
aVdonne sous
p4189
aVlire quelques
p4190
aVdoute remarque
p4191
aVutilisez agregateur
p4192
aVmis couleur
p4193
aVimpression bon
p4194
aa(lp4195
Vpub distributions_linux
p4196
aVfr pub
p4197
ag3916
ag2162
aVfree fr
p4198
aVftp
p4199
ag1344
ag3968
ag645
aVplf
p4200
aa(lp4201
Vplait corrige
p4202
aVrecemment etait
p4203
aVnotamment faille
p4204
aVetait temps
p4205
aVubuntu sudo
p4206
aVprintemps apres
p4207
aVsecurite moins
p4208
aVfrancais plait
p4209
aVhier version
p4210
aVmoins embetante
p4211
aa(lp4212
Vlies douleurs
p4213
aVdouleurs dentaires
p4214
aVnom adresse
p4215
aVdouleurs
p4216
aVlorsque demande
p4217
aVheures pleurs
p4218
aVlorsqu vient
p4219
ag1040
ag947
ag2147
aa(lp4220
Vinteressant
p4221
ag1083
ag746
ag1031
aVxmlhttprequest
p4222
aVprojet ligne
p4223
aVchez rene
p4224
aVrene
p4225
ag173
aVsoiree
p4226
aa(lp4227
Vpetit ira
p4228
aVrendre afe
p4229
aVloin dis
p4230
aVnon rendre
p4231
aVdis notes
p4232
aVpuc petit
p4233
aVpuc planet
p4234
aVploum integre
p4235
aVcom non
p4236
aVpuc
p4237
aa(lp4238
Vprofite cholesterol
p4239
aVdoute belle
p4240
aVtoute part
p4241
ag672
ag2880
ag1074
aVperso
p4242
aVpoint
p4243
aVsite perso
p4244
ag358
aa(lp4245
Vx11 xorg
p4246
aVconf
p4247
aVsection
p4248
aVdemarrage
p4249
aVxorg
p4250
ag202
aVxorg conf
p4251
aVombres
p4252
aVxcompmgr
p4253
ag1471
aa(lp4254
Vhad this
p4255
aVetes agrarian
p4256
aVrace
p4257
aVpeople had
p4258
aV17104
p4259
aVpeople
p4260
ag91
aVresult
p4261
aVagrarian
p4262
aVthis result
p4263
aa(lp4264
Vmeurtre rigolo
p4265
aVubuntu blondes
p4266
aVquand dit
p4267
aVblondes quand
p4268
aVdrole bien
p4269
aVparaitrait ca
p4270
aVrigolo com
p4271
ag1140
aVrigolo
p4272
aVaimer
p4273
aa(lp4274
Vecorce clementine
p4275
aVaime automne
p4276
aVvendeurs marrons
p4277
aVvendeurs
p4278
aVmarrons
p4279
aVfeuilles
p4280
aVtapis
p4281
aVautomne hiver
p4282
aVautomne
p4283
aVhiver
p4284
aa(lp4285
Vdisparaitre
p4286
aVdisparaitre micro
p4287
aVpreferer
p4288
aVdragon si
p4289
ag1157
ag2794
ag1420
aVbus
p4290
ag2228
ag618
aa(lp4291
Vmaxmind
p4292
aVgeoipcity
p4293
aVdat gz
p4294
ag97
ag3680
aVgeolitecity dat
p4295
aVgeolitecity
p4296
aVdat
p4297
ag2573
aVgeoip
p4298
aa(lp4299
Vhaikus
p4300
aVhaikus dessiner
p4301
aVservice reconnaissance
p4302
aVpis star
p4303
aVpreuve clairvoyance
p4304
aVreconnaissance faciale
p4305
aVmourron
p4306
aVnouveau concurrent
p4307
aVart possible
p4308
ag905
aa(lp4309
Vnotes ah
p4310
aVmessieurs ratp
p4311
aVtiens signaler
p4312
aVbeneficie traitement
p4313
aVbeneficie
p4314
aVcasse couilles
p4315
aVdisant notes
p4316
aVratp demarrer
p4317
aVligne beneficie
p4318
ag967
aa(lp4319
Vvia aeiou
p4320
aVconclusion precedent
p4321
aVdocument internet
p4322
aVfois avant
p4323
aVaeiou
p4324
aVaeiou lien
p4325
aVreflechir deux
p4326
aVpublier document
p4327
aVconvaincre reflechir
p4328
aVdefinitivement convaincre
p4329
aa(lp4330
g482
ag1344
aVdpkg
p4331
aVsudo dpkg
p4332
aVevince
p4333
aVkpdf
p4334
aVevince_0
p4335
aV0ubuntu1_i386
p4336
aVevince_0 0ubuntu1_i386
p4337
aV0ubuntu1_i386 deb
p4338
aa(lp4339
Vbillets bien
p4340
aVbien marrants
p4341
aVrenseigne leger
p4342
aVincite utiliser
p4343
aVflux xml
p4344
aVxml plus
p4345
aVadore ben
p4346
aVchomage
p4347
aVdedans designers
p4348
aVminimalisme
p4349
aa(lp4350
g1074
ag1737
aVtant
p4351
ag1067
ag3667
aVbas
p4352
aVmeilleur
p4353
ag672
ag120
aVsarladaise
p4354
aa(lp4355
Vtoute epoque
p4356
aVnetscape 1er
p4357
aVnavigateur toute
p4358
aVaol vient
p4359
aVaol
p4360
aVsupport netscape
p4361
aV1er fevrier
p4362
aVepoque rip
p4363
aVrip
p4364
aVfevrier 2008
p4365
aa(lp4366
Vstandards
p4367
ag1083
ag3968
ag3051
aVavenir
p4368
ag2153
ag354
aVoffertes
p4369
aVfonctionnalites offertes
p4370
aVconnais
p4371
aa(lp4372
Vlaissent perplexes
p4373
aVenlarge bookmarks
p4374
aVenlarge
p4375
aVaere plus
p4376
aVversion dit
p4377
aVperplexes
p4378
ag3863
ag67
ag1277
aVblogmarks net
p4379
aa(lp4380
g1203
aVprogram files
p4381
aVutilisateur
p4382
aVinstallation
p4383
aVfiles postgresql
p4384
aViii
p4385
aVphppgadmin
p4386
aVpgadmin
p4387
aVpgadmin iii
p4388
aVpostgresql
p4389
aa(lp4390
Vtravaillerait distribution
p4391
aVpue fake
p4392
aVbon accorde
p4393
aVquasi rassurant
p4394
aVmark enfonce
p4395
aVenfonce
p4396
aVenfonce clou
p4397
aVrassurant
p4398
aVimaginez imaginez
p4399
aVimaginez
p4400
aa(lp4401
g426
ag427
ag428
ag429
ag430
ag431
ag432
ag696
ag697
ag434
aa(lp4402
Vinterfaces
p4403
aVperformances
p4404
ag1277
ag864
aVkubuntu
p4405
aVabouti
p4406
aVcousin
p4407
aVplus abouti
p4408
ag1918
ag1866
aa(lp4409
Vmartin
p4410
aVprobleme pouvez
p4411
aVversion existe
p4412
aVexiste celle
p4413
aVprenez message
p4414
aVeclipse subclipse
p4415
aVutilisateurs eclipse
p4416
aVmartin ott
p4417
aVpackage subversion
p4418
ag999
aa(lp4419
Vsolo
p4420
aVbatterie bovin
p4421
aVtelediffuse
p4422
aVtelediffuse si
p4423
aVsimulateur solo
p4424
aVbovin telediffuse
p4425
aVmoohtv simulateur
p4426
aVmoohtv
p4427
aVsolo batterie
p4428
aVbovin
p4429
aa(lp4430
g1986
aVlink_to
p4431
ag19
ag1651
ag3627
ag1260
aVjquery
p4432
aVmsg
p4433
aVajax_link
p4434
ag3624
aa(lp4435
Vmain avoues
p4436
aVmeme essaye
p4437
aVfinalement peu
p4438
aVlaterale navigation
p4439
aVpartie constat
p4440
aVmigraine contre
p4441
aVusine gaz
p4442
ag672
ag1778
ag4047
aa(lp4443
Vich7
p4444
aV01
p4445
aVndiswrapper
p4446
aVrev 01
p4447
aVintel
p4448
aVcontroller
p4449
ag2589
aVcorporation
p4450
aVintel corporation
p4451
aVrev
p4452
aa(lp4453
Vfacile
p4454
ag785
aVgeeks
p4455
aVouais
p4456
aVthomas
p4457
ag172
aVrecherches geeks
p4458
aVrecherches google
p4459
ag287
ag912
aa(lp4460
Vcoups cafards
p4461
aVgros chat
p4462
aVmalgre peu
p4463
aVnarrant tribulations
p4464
aVcoup sourire
p4465
aVnarrant
p4466
aVadoucisseur
p4467
aVfrantico coups
p4468
aVchaque planche
p4469
ag1719
aa(lp4470
Vlog
p4471
aVracine
p4472
aVlocal sf11test
p4473
aVsf11test org
p4474
ag1228
ag173
aVproject_root
p4475
aVsf11test
p4476
ag19
aVsymfony11
p4477
aa(lp4478
g19
ag255
ag22
aVproject
p4479
aVcan
p4480
aVbe
p4481
ag17
ag21
aVhudson
p4482
ag23
aa(lp4483
g1022
aVmidi
p4484
ag531
aVremercier
p4485
ag3028
aVchez ups
p4486
aVcamion
p4487
ag864
aVlivraison
p4488
aVups
p4489
aa(lp4490
Vof celui
p4491
aVposseder enseigne
p4492
aVtoujours parfaitement
p4493
aVcelui franpophonie
p4494
aVvoire franchement
p4495
aVpoint certains
p4496
aVapparait tres
p4497
aVfrancaise ca
p4498
aVtres chic
p4499
aVfrancaise
p4500
aa(lp4501
g282
aVsujet
p4502
aVproposer
p4503
aVrapport
p4504
ag29
aVsouhaitez
p4505
aVconference
p4506
aVsi souhaitez
p4507
aVproposer sujet
p4508
aVsujet conference
p4509
aa(lp4510
Vdonc
p4511
aVdomaines
p4512
ag4405
ag1353
aVsous domaines
p4513
aVaucuns
p4514
aVfr language
p4515
aVedubuntu
p4516
aVdesktop
p4517
aVlanguage
p4518
aa(lp4519
g380
ag1987
ag2393
ag281
aViznogoud
p4520
aVcolle
p4521
aVbrule pourpoint
p4522
aVpourpoint
p4523
aVbrule
p4524
ag172
aa(lp4525
g696
ag429
ag4123
ag88
ag4511
aVenorme
p4526
aVvia 64k
p4527
aVenorme donc
p4528
aV64k enorme
p4529
aV64k
p4530
aa(lp4531
Vdeerpark alpha2
p4532
aVgz
p4533
ag1771
ag1469
ag72
ag3024
aVinstaller tar
p4534
aVfirefox installer
p4535
ag1421
aVdeerpark
p4536
aa(lp4537
Vfrancais approchant
p4538
aVdon scale
p4539
aVperformances framework
p4540
aVscale architectures
p4541
aVframeworks tiennent
p4542
aVscale
p4543
aVframeworks don
p4544
aVlibraries and
p4545
aVframeworks
p4546
aVarchitectures
p4547
aa(lp4548
Vgrimpent
p4549
aVorganiser inaugure
p4550
aVzapping hommage
p4551
ag382
ag2824
ag3847
aVinutile
p4552
aVascii
p4553
ag3471
aVmiam
p4554
aa(lp4555
Vutiliser
p4556
ag4455
aVhabitudes
p4557
aVclavier touches
p4558
aVsens
p4559
aVbon sens
p4560
aVclavier alphabetique
p4561
aValphabetique
p4562
ag2746
ag2366
aa(lp4563
Vchangelog ajout
p4564
aVpermettant consulter
p4565
aVofficiel forum
p4566
aVdoclear ajout
p4567
aVtelechargement ete
p4568
ag61
aVmis
p4569
ag67
aVmis jour
p4570
aVajout
p4571
aa(lp4572
Venormissime
p4573
aVfait ni
p4574
aVtrondheim
p4575
aVlewis trondheim
p4576
aVfrantico fait
p4577
aVlewis
p4578
aVscoopeo enormissime
p4579
aVenormissime frantico
p4580
aVmoins lewis
p4581
ag671
aa(lp4582
Vlib
p4583
ag1201
aVlib amfphp
p4584
aVweb amfphp
p4585
ag97
aVservices
p4586
aVamfphp services
p4587
ag2142
ag19
aVamfphp
p4588
aa(lp4589
Vtrouve lien
p4590
aVdeb edit
p4591
aVdan kegel
p4592
ag382
aVaccessible
p4593
ag275
ag3967
aVaccessible depuis
p4594
ag172
aVpicasa
p4595
aa(lp4596
Vmacroman
p4597
aVchamps
p4598
aVexport
p4599
ag33
ag2576
ag717
ag1348
aVcarnet adresses
p4600
aVcarnet
p4601
ag2177
aa(lp4602
Vinstallation gnu
p4603
aVtous environnements
p4604
aVparole intel
p4605
aVmatin ca
p4606
aVfondeur
p4607
aVfondeur bien
p4608
aVenvironnements marche
p4609
aVdistribuer
p4610
aVdeclare porte
p4611
ag4448
aa(lp4612
g1140
aVmagnifique
p4613
aVvia tc
p4614
aVtc
p4615
aVmatinal
p4616
aVmatinal via
p4617
aVeclat rire
p4618
aVrire matinal
p4619
aVmagnifique eclat
p4620
aVeclat
p4621
aa(lp4622
g121
aVligne
p4623
ag3873
aVtres bien
p4624
ag979
aVproposes
p4625
ag172
aVgoogle docs
p4626
aVconception slides
p4627
aVslides
p4628
aa(lp4629
Viliad
p4630
ag645
aVmars
p4631
aVdeux
p4632
aVm6
p4633
aVtnt
p4634
aVtf1
p4635
ag1712
aVdeux chaines
p4636
ag355
aa(lp4637
g94
ag91
ag2204
ag2943
ag98
ag97
ag23
ag4146
ag90
ag99
aa(lp4638
Vliste taches
p4639
aVremember the
p4640
aVmozilla calendar
p4641
aVbackpack
p4642
aVgerer calendrier
p4643
aVphpicalendar
p4644
aVwebcalendar
p4645
ag4154
aVtaches
p4646
aVcalendrier
p4647
aa(lp4648
g3764
aVcompositions
p4649
aVnowhere
p4650
aVfaire musique
p4651
aVepoque
p4652
ag2177
aVtelecharger
p4653
aVmp3
p4654
aVfichier mp3
p4655
aVtelecharger fichier
p4656
aa(lp4657
Vaccompagnement projet
p4658
aVpratiques web
p4659
aVpriver luxe
p4660
aVstandards bonnes
p4661
aVtoutes phases
p4662
aVimpliquer
p4663
aVconfier
p4664
aVengage
p4665
ag173
ag249
aa(lp4666
g1989
ag47
ag2393
ag281
ag3159
aVva etre
p4667
aVbruit
p4668
aVtolerable
p4669
aVgoogle sais
p4670
ag172
aa(lp4671
Vnimporte lequel
p4672
aVapparemment disparition
p4673
ag3313
aVlieu
p4674
aVnumero
p4675
ag3311
aVfigurer
p4676
aVplaques
p4677
aVnumero departement
p4678
aVdepartement
p4679
aa(lp4680
Vsysteme stockage
p4681
aVmemoire
p4682
ag97
aVsessions
p4683
aVdemon
p4684
ag2142
aVstockage
p4685
aV11211
p4686
aVmemcache
p4687
aVmemcached
p4688
aa(lp4689
Vplupart plateformes
p4690
aVchez ca
p4691
aVpermettant afficher
p4692
aVphp voici
p4693
aVhebergement disposant
p4694
aVarchive
p4695
aVscoopeo archive
p4696
ag61
ag3858
aVplugin scoopeo
p4697
aa(lp4698
Vpremier celui
p4699
aVthunderbird sauf
p4700
aVvient appeller
p4701
aVcustomized
p4702
aVclient
p4703
ag2276
ag225
ag672
aVtape
p4704
ag1350
aa(lp4705
g21
ag17
aVslide
p4706
ag2061
aVslide show
p4707
ag2457
ag4517
ag1162
ag23
ag618
aa(lp4708
Vweb xxxxxxxxx
p4709
aVxxxxxxxxx conservez
p4710
aVxxxxxxxxx
p4711
aVheureux adresser
p4712
aVnoir retours
p4713
aVpeu ps
p4714
aVcraque faible
p4715
aVadresser confirmation
p4716
aVcommande web
p4717
aVcommande
p4718
aa(lp4719
Vchown
p4720
aVchown www
p4721
ag2328
ag152
ag2832
aVdata www
p4722
aVwww data
p4723
aVwww dotclear
p4724
ag1781
aVwww
p4725
aa(lp4726
Vpassion main
p4727
aVdonc clique
p4728
aVvoit rien
p4729
aVvoit carrement
p4730
aVpasser proxy
p4731
aVrien
p4732
ag31
ag4351
aVvoit
p4733
ag785
aa(lp4734
Vhabite ouaaaah
p4735
aVfrance tableau
p4736
aVracines
p4737
aVajoute france
p4738
aVtravaille ouaiiiiis
p4739
aVtrop envie
p4740
aVouaaaah
p4741
aVouaiiiiis ca
p4742
aVdonne trop
p4743
aVenvie racines
p4744
aa(lp4745
Vhoraires
p4746
ag747
ag1193
aVoccasion
p4747
ag381
ag268
aVforum php
p4748
aVoyez
p4749
aVphp dit
p4750
aVthanh
p4751
aa(lp4752
g1420
ag797
ag1230
ag947
ag4352
ag1753
ag1772
ag2701
aVreferers
p4753
aVbas page
p4754
aa(lp4755
Vinstalation appuyez
p4756
aVcombianison
p4757
aVexpose killer
p4758
aVnotes apres
p4759
aVextensions specifiques
p4760
aVhallucinant deplaise
p4761
aVbonnement hallucinant
p4762
aVapres instalation
p4763
aVfeature os
p4764
aVouvertes miniatures
p4765
aa(lp4766
Vpourquoi franche
p4767
aVdesole derangement
p4768
aVvraiment comprendre
p4769
aVmidi declenche
p4770
aVfois ouvrir
p4771
aVouvrir bloglines
p4772
aVfranche
p4773
aVbloglines apres
p4774
aVchez vraiment
p4775
aVfranche rigolade
p4776
aa(lp4777
g1575
ag94
aVcreated_at timestamp
p4778
aVlocalname
p4779
aVforeignclass
p4780
ag1574
ag1226
ag19
ag480
ag545
aa(lp4781
g2701
ag1230
aVselectionne lien
p4782
aVfleche vers
p4783
aVtouche
p4784
ag1753
aVlynx
p4785
aVselectionne
p4786
ag763
ag3488
aa(lp4787
Vpeu avant
p4788
aVpublier chose
p4789
aVebauche
p4790
aVebauche integration
p4791
aVdonc publier
p4792
aVrenonce developper
p4793
aVsympathique export
p4794
ag61
ag1022
ag1781
aa(lp4795
g4260
ag1029
aVcountry
p4796
aVgiven
p4797
ag23
ag253
ag4145
ag1663
ag1665
ag1086
aa(lp4798
Vrasmus lerdorf
p4799
aVandrei zmievski
p4800
aVphp6 comment
p4801
aVsecurite retours
p4802
aVfacebook tient
p4803
aVphp 2007
p4804
aVquelques invites
p4805
ag3282
ag3752
ag97
aa(lp4806
g2822
ag2824
ag2823
aVphp lib
p4807
ag249
ag618
ag4583
ag1260
ag97
aVadodb
p4808
aa(lp4809
Vetre judicieux
p4810
aVpromotion points
p4811
aVetais dit
p4812
aVforts linux
p4813
aVwhy linux
p4814
aVhyper simple
p4815
aVcolle why
p4816
aVjudicieux mettre
p4817
aVcornet colle
p4818
aVlinux is
p4819
aa(lp4820
Vjamais
p4821
ag1133
aVlibrary
p4822
aVsort
p4823
aV06
p4824
ag4654
aVpalm os
p4825
ag237
ag2419
aVpalm
p4826
aa(lp4827
Vaverti
p4828
aVbelgique bruxelles
p4829
aVsoir rencontrer
p4830
aVtemps etait
p4831
aVoubliez waterzoi
p4832
aVfinalement averti
p4833
aV17 18
p4834
aVprochains raisons
p4835
aVtrackbacks fermes
p4836
aVexactement 17
p4837
aa(lp4838
Voffertes breezy
p4839
aVmois application
p4840
aVapplication lance
p4841
aVapplication permet
p4842
aVorg previsualiser
p4843
ag2318
ag1918
ag4008
aVart manager
p4844
ag2916
aa(lp4845
Vgagne
p4846
aVrails ca
p4847
aVhebergement gratuit
p4848
aVgagne hebergement
p4849
aVca ruby
p4850
aVsuper gagne
p4851
aVgratuit ruby
p4852
ag1774
ag840
ag3524
aa(lp4853
Vwebcollab
p4854
ag97
ag249
ag1268
ag679
ag4479
ag972
ag4145
aVplatform
p4855
ag618
aa(lp4856
Vtelevision ose
p4857
aVcomment optimiser
p4858
aVdriver support
p4859
aVquil nentrainera
p4860
aVof those
p4861
aVthose things
p4862
aVubuntu better
p4863
aVproposer linux
p4864
aVwe
p4865
aVthose
p4866
aa(lp4867
Vdroit detester
p4868
aVplus celui
p4869
aValors fait
p4870
aVfait droit
p4871
aVgris fait
p4872
aVvraiment important
p4873
aVcorriger quelques
p4874
aVnote
p4875
ag1074
aVgris
p4876
aa(lp4877
Vvanilla
p4878
aVharry potter
p4879
aVabbreviations
p4880
ag3873
aVdevelopers
p4881
ag17
ag23
aVthe web
p4882
ag249
ag618
aa(lp4883
Vtenais juste
p4884
aVstats tenais
p4885
aVtenais
p4886
aVdernier justice
p4887
aVan deja
p4888
aVlecture premier
p4889
aVcrois su
p4890
aVanniversaire petit
p4891
aVreveillon joyeux
p4892
aVanniversaire
p4893
aa(lp4894
Vsorti disponible
p4895
aVjudicieusement
p4896
aVjudicieusement remarquer
p4897
aVlts sorti
p4898
aVremouk font
p4899
aVpage ubuntu
p4900
aVremarquer home
p4901
aVchange ca
p4902
aVubuntu change
p4903
aVtres pro
p4904
aa(lp4905
Vnaturel
p4906
aVphenomene
p4907
aVchanson
p4908
aVphenomene naturel
p4909
aVhin si
p4910
aVhin hin
p4911
aVhin
p4912
ag1159
aVetais
p4913
aVsi etais
p4914
aa(lp4915
Vprogramme python
p4916
aVpepins
p4917
aVligne gratuit
p4918
aVpepins heureusement
p4919
aVfrancais google
p4920
aVdisponible concurrent
p4921
aVplus developpements
p4922
aVsempiternels
p4923
ag1083
aVseduit
p4924
aa(lp4925
g1664
aVblock
p4926
ag3841
aVlang
p4927
aVcomp_url
p4928
aVdccatlistwithnumbers
p4929
aVres
p4930
aVli
p4931
ag1611
aVrs_cat
p4932
aa(lp4933
Vedit fake
p4934
aVruby reellement
p4935
aVfree prepare
p4936
aVpages personnelles
p4937
aVefficace langage
p4938
aVtres attachant
p4939
aVprepare proposer
p4940
aVca formidable
p4941
aVproposer ruby
p4942
ag840
aa(lp4943
Vhuge number
p4944
ag97
ag1567
ag17
ag3488
ag22
aVfedora
p4945
ag717
ag618
ag23
aa(lp4946
Vaccro
p4947
aVvim
p4948
aVfoireux accro
p4949
aVjsvi
p4950
aVwysiwyg foireux
p4951
aVvim jsvi
p4952
aVaccro vim
p4953
aVmarre editeurs
p4954
aVediteurs wysiwyg
p4955
aVjsvi fait
p4956
aa(lp4957
Vbuzz lien
p4958
aVmieux quand
p4959
aVajax mieux
p4960
aVbreles profitant
p4961
aVmarche ca
p4962
aVbreles
p4963
aVwhois ajax
p4964
aVquand ca
p4965
aVpasser breles
p4966
ag1986
aa(lp4967
Vphpcodegenie
p4968
aVscreen recorder
p4969
aVrecorder
p4970
aVdriven applications
p4971
aVcode generator
p4972
ag4199
ag1029
aVscreen
p4973
ag618
ag97
aa(lp4974
Vfreenet
p4975
aVpersonne procedant
p4976
aVechanges cryptes
p4977
aVechanges fichiers
p4978
aVnouvelles matin
p4979
aVafin envoyer
p4980
aVtrain vont
p4981
ag2970
aVechanges
p4982
aVreseaux
p4983
aa(lp4984
g426
ag427
ag428
ag429
ag430
ag431
ag432
aVevil are
p4985
ag434
aVaddictif
p4986
aa(lp4987
g426
ag427
ag428
ag429
ag430
ag431
ag432
ag696
ag697
ag434
aa(lp4988
Vdefini defaut
p4989
aVcombinaison alt
p4990
aVallez rire
p4991
aVdefaut it
p4992
aVit great
p4993
aValt clic
p4994
aVrepertoire telechargement
p4995
aVplus genial
p4996
aVconnaissais fonctionnalite
p4997
aVenregistrer cible
p4998
aa(lp4999
V3a tar
p5000
aV3a
p5001
aVxampp linux
p5002
aVstop
p5003
ag152
aValias
p5004
ag482
aVsudo lampp
p5005
aVxampp
p5006
aVlampp
p5007
aa(lp5008
Vvelib
p5009
aVdepart
p5010
aVachat
p5011
aVvelo
p5012
aVslot libre
p5013
aVslot
p5014
ag3600
aVrue
p5015
aVrue douai
p5016
aVdouai
p5017
aa(lp5018
Vetch
p5019
aVhier debian
p5020
aVdebian nommee
p5021
aV21 mois
p5022
aVperso bravo
p5023
aVadopter tant
p5024
aVnommee etch
p5025
ag1276
ag1089
aVdebian
p5026
aa(lp5027
Vposer questions
p5028
aVquand commence
p5029
aVgenre trucs
p5030
aVcommence inventer
p5031
aVfaut poser
p5032
aVproduire genre
p5033
aVinventer produire
p5034
aVtrucs faut
p5035
aVquestions dis
p5036
aVdis via
p5037
aa(lp5038
Vdesktop grand
p5039
aVavoir toucher
p5040
aVto touch
p5041
aVtoucher
p5042
aVtoucher seule
p5043
aVetre repare
p5044
aVthat should
p5045
aVtouch the
p5046
aVpublic dit
p5047
ag2294
aa(lp5048
Vphotographies plupart
p5049
aVphotos plus
p5050
aVagregateur celui
p5051
aVsieur blog
p5052
aVmeme fait
p5053
aVcelui iko
p5054
aVplus interessantes
p5055
aVfait set
p5056
aVrhaaa sieur
p5057
aVcelui
p5058
aa(lp5059
Vgare camionnette
p5060
aVgarage georgette
p5061
aVbateau
p5062
aVdevant bateau
p5063
aVcamionnette devant
p5064
aVbateau garage
p5065
aVprisu
p5066
aVgeorgette
p5067
aVcamionnette
p5068
aVrobert
p5069
aa(lp5070
Vbloic bien
p5071
aVservices estimation
p5072
aVis your
p5073
aVvaleur blogs
p5074
aVblogs respectifs
p5075
aVevidemment
p5076
aVbien evidemment
p5077
aVcon
p5078
ag1221
aVworth
p5079
aa(lp5080
Vetes ps
p5081
aVheros etes
p5082
aVquizz
p5083
aVlongtemps bon
p5084
aVpetit quizz
p5085
aVbon petit
p5086
aVordiman tiens
p5087
aVordiman
p5088
aVps bon
p5089
aVreveillon tous
p5090
aa(lp5091
Vblog profite
p5092
aVsorte propos
p5093
aVtrop habitue
p5094
aVdotclear rc1
p5095
aVpropos site
p5096
aVvia plugin
p5097
aVdepot commentaire
p5098
ag61
ag1781
ag1778
aa(lp5099
Vopenweb
p5100
aVpassait casse
p5101
aVopenweb apres
p5102
aVunis si
p5103
aVcasse quand
p5104
aVbolchevique
p5105
aVmeme nomination
p5106
aVgauche passait
p5107
aVgala
p5108
aVnomination kouchner
p5109
aa(lp5110
Vtabac ca
p5111
aVeuropeenne intensifie
p5112
aVpersonnel cherie
p5113
aVlutte contre
p5114
aVlutte
p5115
aVsi lis
p5116
aVplus softs
p5117
aVcherie si
p5118
aVblogue donc
p5119
aVdonc quand
p5120
aa(lp5121
Vcote gmail
p5122
aVjapanese
p5123
aVmore languages
p5124
aVgmail propose
p5125
aVinterface
p5126
aVfrancais
p5127
ag1715
ag4518
aVselectionner
p5128
ag717
aa(lp5129
Vobligatoire
p5130
aVeverything
p5131
aVeverything is
p5132
aVcom obligatoire
p5133
aVscoopeo everything
p5134
aVpossible at
p5135
aVzombo com
p5136
aVzombo
p5137
aVat zombo
p5138
aVis possible
p5139
aa(lp5140
g4351
ag235
ag2155
aVdavid
p5141
aVdjango
p5142
aVinscrire
p5143
aVclaude
p5144
aVpresentera
p5145
aVlevenement
p5146
aVscrum
p5147
aa(lp5148
Vnouvelles libre
p5149
aVpremier semestre
p5150
aVdonc mieux
p5151
ag644
aVbureautiques
p5152
aVministere
p5153
aVpostes bureautiques
p5154
ag2571
aVpostes
p5155
ag1956
aa(lp5156
g2634
aVdbdump_filename tar
p5157
ag4533
ag1771
ag2943
ag72
aVcurrentdate
p5158
aVdir_backup dbdump_filename
p5159
aVdbdump_filename
p5160
aVdir_backup
p5161
aa(lp5162
g427
ag4122
ag426
aVframasoft
p5163
aVhonore
p5164
aVdiffuse
p5165
aVdiffuse compos
p5166
aVcompos
p5167
aVcompos honore
p5168
aVframasoft diffuse
p5169
aa(lp5170
Vaxes damelioration
p5171
aVsuggerer axes
p5172
aVcritiquer
p5173
aVflickr nhesitez
p5174
aVdautres photos
p5175
aVaccessibles flux
p5176
aVailleurs accessibles
p5177
aVphotos ailleurs
p5178
aVcritiquer suggerer
p5179
aVaxes
p5180
aa(lp5181
g1918
aVajouter
p5182
ag770
aVkdm
p5183
ag2794
ag1866
aVtableau
p5184
aVapplets
p5185
aVtableau bord
p5186
aVbord
p5187
aa.